Certificate:
    Data:
        Version: 3 (0x2)
        Serial Number: 268435673 (0x100000d9)
        Signature Algorithm: sha256WithRSAEncryption
        Issuer: C=DE, ST=Hessen, O=privacyidea, CN=CA001
        Validity
            Not Before: Oct 24 08:58:48 2019 GMT
            Not After : Nov 12 08:58:48 2021 GMT
        Subject: CN=Steve Test/emailAddress=steve@openssl.org
        Subject Public Key Info:
            Public Key Algorithm: rsaEncryption
                RSA Public-Key: (2048 bit)
                Modulus:
                    00:d2:81:89:20:51:48:0f:73:f4:11:32:24:d5:1f:
                    1c:fd:5c:f5:b6:e6:c5:f0:52:81:dc:d2:af:66:4a:
                    7c:93:31:61:5c:af:d1:6d:06:70:03:60:7c:72:0c:
                    88:dd:49:cd:9e:02:6c:d2:5a:d7:53:0f:f3:da:be:
                    69:64:b5:0f:0c:00:e3:b3:50:47:a3:b3:9b:ba:13:
                    50:d6:58:5a:4b:ab:39:e0:11:ca:0a:27:67:03:78:
                    22:66:6d:92:1e:1b:5c:49:ae:e6:6b:d1:8e:3b:9d:
                    06:d3:c6:ac:4d:53:43:10:ab:e8:96:c1:87:82:97:
                    99:8f:20:d3:99:12:37:31:84:e1:8a:ff:29:03:5f:
                    22:90:3e:7f:9b:e0:20:c1:ad:dc:ae:4c:39:1a:31:
                    96:17:02:8c:b2:d9:b4:0d:20:12:9b:7d:86:54:fd:
                    33:fd:c1:2a:62:46:f8:60:96:cf:6e:01:6f:22:df:
                    13:47:e7:97:ec:05:72:23:a3:62:f8:fa:ef:ac:9c:
                    72:f0:37:cb:2f:37:cf:90:a8:27:51:86:c6:d7:78:
                    08:8f:7e:25:a2:15:70:a2:fb:1c:b6:15:5e:a0:97:
                    8b:81:4c:09:28:8a:27:3b:94:bc:71:db:5b:71:37:
                    9a:2b:16:e0:6f:b5:c9:f5:4b:4f:20:ba:65:cf:af:
                    ad:ad
                Exponent: 65537 (0x10001)
        X509v3 extensions:
            X509v3 Key Usage: 
                Digital Signature, Key Encipherment
            X509v3 Basic Constraints: 
                CA:FALSE
            Netscape Cert Type: 
                SSL Server
            Netscape Comment: 
                OpenSSL Generated Server Certificate
            X509v3 Subject Key Identifier: 
                E5:25:6D:3E:AF:0D:DD:3F:4C:F2:45:19:39:D5:14:DB:7E:9C:C0:AD
            X509v3 Authority Key Identifier: 
                keyid:F4:A7:C0:CC:91:46:AF:64:F3:91:F2:27:F8:C8:B2:6F:8A:87:32:73
                DirName:/C=DE/ST=Hessen/O=privacyidea/CN=CA001
                serial:FB:C8:EB:AC:83:CD:12:07

            X509v3 Extended Key Usage: 
                TLS Web Server Authentication
    Signature Algorithm: sha256WithRSAEncryption
         63:f4:9f:63:88:58:ca:f2:27:11:60:74:d0:7f:9a:ca:02:19:
         73:b8:34:cb:10:ef:be:9b:be:81:7a:05:a8:81:83:4a:cf:be:
         26:82:c8:5f:82:1d:9f:cf:e3:5c:cf:a5:46:44:62:23:b0:b4:
         f0:89:a4:f9:d2:13:a0:f4:cb:4b:45:c3:db:31:fc:8b:d5:e9:
         2e:34:4d:79:9b:10:57:11:bc:cf:32:c2:67:08:c4:db:bf:1e:
         17:c6:4b:7e:5c:99:b6:c2:cc:86:c7:68:e4:1c:f3:23:90:a3:
         0d:0e:be:bc:15:2c:a8:ca:0e:c6:2d:98:da:86:bd:4b:78:00:
         de:b8:b2:4d:32:3b:23:01:0f:66:38:17:c5:c1:1f:37:69:05:
         f3:09:75:37:40:a5:46:5a:a4:10:5d:23:87:a9:e6:40:85:03:
         c1:dc:76:ce:9c:33:6b:07:8e:78:3e:b7:d7:10:c2:fe:48:87:
         b0:06:0f:c5:f0:ea:4e:e2:51:aa:a9:9e:59:fb:87:4a:dd:d5:
         f1:c2:72:85:78:51:97:17:ef:57:ec:26:14:cb:92:83:aa:57:
         07:6f:99:ce:5b:7a:e4:99:4b:19:47:78:be:3b:cb:ee:65:eb:
         cc:8d:28:2a:22:ca:e2:b0:61:b2:7a:c2:94:70:9e:5b:76:d4:
         02:4f:8f:18
-----BEGIN CERTIFICATE-----
MIIECTCCAvGgAwIBAgIEEAAA2TANBgkqhkiG9w0BAQsFADBEMQswCQYDVQQGEwJE
RTEPMA0GA1UECAwGSGVzc2VuMRQwEgYDVQQKDAtwcml2YWN5aWRlYTEOMAwGA1UE
AwwFQ0EwMDEwHhcNMTkxMDI0MDg1ODQ4WhcNMjExMTEyMDg1ODQ4WjA3MRMwEQYD
VQQDDApTdGV2ZSBUZXN0MSAwHgYJKoZIhvcNAQkBFhFzdGV2ZUBvcGVuc3NsLm9y
ZzCCASIwDQYJKoZIhvcNAQEBBQADggEPADCCAQoCggEBANKBiSBRSA9z9BEyJNUf
HP1c9bbmxfBSgdzSr2ZKfJMxYVyv0W0GcANgfHIMiN1JzZ4CbNJa11MP89q+aWS1
DwwA47NQR6Ozm7oTUNZYWkurOeARygonZwN4ImZtkh4bXEmu5mvRjjudBtPGrE1T
QxCr6JbBh4KXmY8g05kSNzGE4Yr/KQNfIpA+f5vgIMGt3K5MORoxlhcCjLLZtA0g
Ept9hlT9M/3BKmJG+GCWz24BbyLfE0fnl+wFciOjYvj676yccvA3yy83z5CoJ1GG
xtd4CI9+JaIVcKL7HLYVXqCXi4FMCSiKJzuUvHHbW3E3misW4G+1yfVLTyC6Zc+v
ra0CAwEAAaOCAQ4wggEKMAsGA1UdDwQEAwIFoDAJBgNVHRMEAjAAMBEGCWCGSAGG
+EIBAQQEAwIGQDAzBglghkgBhvhCAQ0EJhYkT3BlblNTTCBHZW5lcmF0ZWQgU2Vy
dmVyIENlcnRpZmljYXRlMB0GA1UdDgQWBBTlJW0+rw3dP0zyRRk51RTbfpzArTB0
BgNVHSMEbTBrgBT0p8DMkUavZPOR8if4yLJviocyc6FIpEYwRDELMAkGA1UEBhMC
REUxDzANBgNVBAgMBkhlc3NlbjEUMBIGA1UECgwLcHJpdmFjeWlkZWExDjAMBgNV
BAMMBUNBMDAxggkA+8jrrIPNEgcwEwYDVR0lBAwwCgYIKwYBBQUHAwEwDQYJKoZI
hvcNAQELBQADggEBAGP0n2OIWMryJxFgdNB/msoCGXO4NMsQ776bvoF6BaiBg0rP
viaCyF+CHZ/P41zPpUZEYiOwtPCJpPnSE6D0y0tFw9sx/IvV6S40TXmbEFcRvM8y
wmcIxNu/HhfGS35cmbbCzIbHaOQc8yOQow0OvrwVLKjKDsYtmNqGvUt4AN64sk0y
OyMBD2Y4F8XBHzdpBfMJdTdApUZapBBdI4ep5kCFA8Hcds6cM2sHjng+t9cQwv5I
h7AGD8Xw6k7iUaqpnln7h0rd1fHCcoV4UZcX71fsJhTLkoOqVwdvmc5beuSZSxlH
eL47y+5l68yNKCoiyuKwYbJ6wpRwnlt21AJPjxg=
-----END CERTIFICATE-----
