Certificate:
    Data:
        Version: 3 (0x2)
        Serial Number: 268435676 (0x100000dc)
        Signature Algorithm: sha256WithRSAEncryption
        Issuer: C=DE, ST=Hessen, O=privacyidea, CN=CA001
        Validity
            Not Before: Oct 24 09:40:49 2019 GMT
            Not After : Oct 23 09:40:49 2020 GMT
        Subject: C=DE, ST=Hessen, O=privacyidea, CN=requester.localdomain
        Subject Public Key Info:
            Public Key Algorithm: rsaEncryption
                RSA Public-Key: (2048 bit)
                Modulus:
                    00:cd:be:14:4f:fa:ce:01:3f:42:22:1b:1d:9c:af:
                    dd:92:d2:7f:db:6c:b7:3e:39:43:43:6b:13:03:f1:
                    05:f4:07:74:bc:76:69:28:0b:af:19:8e:d7:fc:e3:
                    cd:c6:58:f2:ca:7f:08:6d:53:fc:07:02:44:24:c6:
                    b4:34:4c:8c:04:fe:33:0e:40:e2:20:ba:02:73:5a:
                    f7:f5:4f:63:6e:cc:c6:b6:df:54:1d:37:39:7d:51:
                    36:26:5f:bd:dc:3f:a8:8b:6b:a2:ae:b6:9d:d6:21:
                    e7:df:41:b8:7a:28:2a:68:48:ca:a8:2d:ed:e1:e9:
                    46:5e:5a:72:6d:b4:84:38:87:91:fd:94:11:0b:28:
                    84:c6:c2:2f:2a:fb:01:f9:36:7a:09:75:d1:33:88:
                    3c:73:41:5b:c8:bf:94:89:70:a1:f0:c0:b9:2e:50:
                    53:1e:b1:17:64:69:f4:2d:81:e0:a9:0d:0e:32:e9:
                    ba:55:8a:85:f1:1b:6f:49:79:b4:7f:88:c3:0d:3e:
                    54:88:9b:3d:1f:38:8c:04:f3:ee:6a:63:2b:f5:c6:
                    db:b4:83:aa:c4:78:41:3a:7d:4b:e1:c8:3e:71:ca:
                    1b:61:59:ea:c6:c4:ca:32:5e:c9:e9:bf:12:29:e6:
                    c6:c3:63:fe:a0:55:da:7a:f1:60:98:4d:26:ed:fa:
                    70:2d
                Exponent: 65537 (0x10001)
        X509v3 extensions:
            X509v3 Key Usage: 
                Digital Signature, Key Encipherment
            X509v3 Basic Constraints: 
                CA:FALSE
            Netscape Cert Type: 
                SSL Server
            Netscape Comment: 
                OpenSSL Generated Server Certificate
            X509v3 Subject Key Identifier: 
                53:3F:ED:5D:09:07:B3:65:7B:AB:45:C9:24:5B:09:77:80:0A:96:ED
            X509v3 Authority Key Identifier: 
                keyid:F4:A7:C0:CC:91:46:AF:64:F3:91:F2:27:F8:C8:B2:6F:8A:87:32:73
                DirName:/C=DE/ST=Hessen/O=privacyidea/CN=CA001
                serial:FB:C8:EB:AC:83:CD:12:07

            X509v3 Extended Key Usage: 
                TLS Web Server Authentication
    Signature Algorithm: sha256WithRSAEncryption
         01:27:6e:4c:9b:b8:9f:0f:05:ef:94:4c:88:1f:44:93:a9:12:
         8b:c0:bd:ae:88:50:10:92:34:e9:b4:1e:71:bc:12:83:a9:52:
         7b:2f:00:85:4d:d4:69:e9:13:22:0e:76:0c:8a:a9:e2:1e:43:
         b8:82:75:42:67:89:24:a9:85:a8:67:59:15:7c:3c:44:e1:c2:
         ac:3d:e7:62:e1:b9:c8:d1:19:2b:95:f5:63:02:af:8f:a6:32:
         3d:36:56:f0:82:77:44:43:f8:31:49:c8:ee:8f:9d:31:c1:b6:
         0d:49:53:a7:45:ce:bc:32:17:53:c7:a8:2c:f8:5b:b5:93:82:
         00:04:1b:a9:67:df:4a:9f:08:4e:8c:23:2d:d0:c6:f5:4e:01:
         4a:c5:d3:db:05:61:84:8d:89:db:1a:87:9c:65:ba:52:fe:62:
         a5:f9:e8:67:a6:6f:22:83:19:e3:82:96:f4:c8:42:26:ed:83:
         f3:09:09:14:4c:4c:88:84:14:a8:20:ed:cb:c4:99:b2:35:c1:
         4c:c5:b7:f0:de:92:7f:e7:72:1a:85:ae:90:70:29:9f:8c:03:
         fe:d3:89:6e:4c:87:ac:79:69:ae:6f:6d:25:f7:a1:6c:15:8b:
         4d:52:f6:4b:38:73:3d:87:b4:0a:b0:0e:98:8c:56:48:cc:2a:
         d5:47:7d:69
-----BEGIN CERTIFICATE-----
MIIEJjCCAw6gAwIBAgIEEAAA3DANBgkqhkiG9w0BAQsFADBEMQswCQYDVQQGEwJE
RTEPMA0GA1UECAwGSGVzc2VuMRQwEgYDVQQKDAtwcml2YWN5aWRlYTEOMAwGA1UE
AwwFQ0EwMDEwHhcNMTkxMDI0MDk0MDQ5WhcNMjAxMDIzMDk0MDQ5WjBUMQswCQYD
VQQGEwJERTEPMA0GA1UECAwGSGVzc2VuMRQwEgYDVQQKDAtwcml2YWN5aWRlYTEe
MBwGA1UEAwwVcmVxdWVzdGVyLmxvY2FsZG9tYWluMIIBIjANBgkqhkiG9w0BAQEF
AAOCAQ8AMIIBCgKCAQEAzb4UT/rOAT9CIhsdnK/dktJ/22y3PjlDQ2sTA/EF9Ad0
vHZpKAuvGY7X/OPNxljyyn8IbVP8BwJEJMa0NEyMBP4zDkDiILoCc1r39U9jbszG
tt9UHTc5fVE2Jl+93D+oi2uirrad1iHn30G4eigqaEjKqC3t4elGXlpybbSEOIeR
/ZQRCyiExsIvKvsB+TZ6CXXRM4g8c0FbyL+UiXCh8MC5LlBTHrEXZGn0LYHgqQ0O
Mum6VYqF8RtvSXm0f4jDDT5UiJs9HziMBPPuamMr9cbbtIOqxHhBOn1L4cg+ccob
YVnqxsTKMl7J6b8SKebGw2P+oFXaevFgmE0m7fpwLQIDAQABo4IBDjCCAQowCwYD
VR0PBAQDAgWgMAkGA1UdEwQCMAAwEQYJYIZIAYb4QgEBBAQDAgZAMDMGCWCGSAGG
+EIBDQQmFiRPcGVuU1NMIEdlbmVyYXRlZCBTZXJ2ZXIgQ2VydGlmaWNhdGUwHQYD
VR0OBBYEFFM/7V0JB7Nle6tFySRbCXeACpbtMHQGA1UdIwRtMGuAFPSnwMyRRq9k
85HyJ/jIsm+KhzJzoUikRjBEMQswCQYDVQQGEwJERTEPMA0GA1UECAwGSGVzc2Vu
MRQwEgYDVQQKDAtwcml2YWN5aWRlYTEOMAwGA1UEAwwFQ0EwMDGCCQD7yOusg80S
BzATBgNVHSUEDDAKBggrBgEFBQcDATANBgkqhkiG9w0BAQsFAAOCAQEAASduTJu4
nw8F75RMiB9Ek6kSi8C9rohQEJI06bQecbwSg6lSey8AhU3UaekTIg52DIqp4h5D
uIJ1QmeJJKmFqGdZFXw8ROHCrD3nYuG5yNEZK5X1YwKvj6YyPTZW8IJ3REP4MUnI
7o+dMcG2DUlTp0XOvDIXU8eoLPhbtZOCAAQbqWffSp8ITowjLdDG9U4BSsXT2wVh
hI2J2xqHnGW6Uv5ipfnoZ6ZvIoMZ44KW9MhCJu2D8wkJFExMiIQUqCDty8SZsjXB
TMW38N6Sf+dyGoWukHApn4wD/tOJbkyHrHlprm9tJfehbBWLTVL2SzhzPYe0CrAO
mIxWSMwq1Ud9aQ==
-----END CERTIFICATE-----
