Certificate:
    Data:
        Version: 3 (0x2)
        Serial Number: 268435672 (0x100000d8)
        Signature Algorithm: sha256WithRSAEncryption
        Issuer: C=DE, ST=Hessen, O=privacyidea, CN=CA001
        Validity
            Not Before: Nov 14 06:24:25 2019 GMT
            Not After : Nov 13 06:24:25 2020 GMT
        Subject: CN=selfservice,CN=user,O=realm1/emailAddress=meine
        Subject Public Key Info:
            Public Key Algorithm: rsaEncryption
                RSA Public-Key: (2048 bit)
                Modulus:
                    00:cf:3c:d4:33:0e:12:c4:e6:da:cd:b6:56:a1:1c:
                    26:bb:26:1c:8a:4a:73:a8:58:8a:b6:1e:b3:8b:99:
                    d2:1d:07:c2:92:89:79:c0:69:d8:c8:df:28:61:98:
                    1e:b3:fe:ae:2b:bd:78:a9:f7:6e:47:dc:a3:a0:16:
                    8c:85:02:c1:4e:92:fd:72:6e:f0:c8:03:29:9b:b8:
                    00:6e:c0:83:95:c8:34:20:36:9c:b3:e5:e4:e6:76:
                    73:a3:1a:ad:40:96:e0:53:54:00:ec:76:79:9a:c6:
                    0d:7e:b6:bd:29:ec:83:f3:cb:89:a4:cb:6c:00:ba:
                    0c:c5:78:0f:ff:69:b8:94:f4:04:70:43:3f:d8:9e:
                    d7:a7:fb:5d:ce:75:8e:da:e7:c4:07:b1:9d:de:6f:
                    88:4b:b6:4d:9a:cf:f9:bc:fa:9f:cd:32:6d:f6:3a:
                    0b:0d:23:42:78:ec:97:42:bf:0e:4d:60:56:e1:d3:
                    02:f2:19:cb:84:57:90:e5:70:a1:a2:83:35:86:e2:
                    da:86:9f:f9:8a:c4:79:b3:52:28:da:cb:bb:34:ca:
                    d3:da:91:4a:cf:8d:76:a2:b2:6b:9b:f9:96:fd:09:
                    2a:da:11:23:4d:f0:cb:d6:b2:b1:0e:12:6c:9a:19:
                    65:98:87:ca:e4:ee:24:ce:44:ac:90:8f:9d:1b:c5:
                    2a:9d
                Exponent: 65537 (0x10001)
        X509v3 extensions:
            X509v3 Key Usage: 
                Digital Signature, Key Encipherment
            X509v3 Basic Constraints: 
                CA:FALSE
            Netscape Cert Type: 
                SSL Server
            Netscape Comment: 
                OpenSSL Generated Server Certificate
            X509v3 Subject Key Identifier: 
                4D:07:90:AD:FF:1D:0D:E7:1A:DD:D6:2E:FA:BA:34:CB:AA:1F:24:C6
            X509v3 Authority Key Identifier: 
                keyid:F4:A7:C0:CC:91:46:AF:64:F3:91:F2:27:F8:C8:B2:6F:8A:87:32:73
                DirName:/C=DE/ST=Hessen/O=privacyidea/CN=CA001
                serial:FB:C8:EB:AC:83:CD:12:07

            X509v3 Extended Key Usage: 
                TLS Web Server Authentication
    Signature Algorithm: sha256WithRSAEncryption
         11:d2:4d:3d:f5:ff:15:9d:06:e7:c0:9f:79:49:7e:af:fc:e2:
         09:96:21:80:79:77:21:07:bd:1b:26:9f:28:9c:71:68:e2:80:
         98:e8:f7:16:89:40:39:a6:07:fa:fb:5e:a2:30:02:ec:7b:ce:
         32:7a:d5:0e:ab:22:be:9b:a8:ea:f4:3e:9d:07:75:c7:e3:bb:
         bb:65:63:9f:74:c4:8a:b6:f5:5b:98:24:ce:21:91:0e:f7:40:
         9a:37:1d:67:2e:97:30:5e:03:4e:2a:91:f8:58:9b:f0:1a:68:
         d2:6d:3e:db:50:59:8f:d4:de:a9:72:93:16:29:41:1d:44:29:
         f1:80:fe:51:81:b3:b7:32:60:5e:eb:40:a8:b8:72:24:10:8d:
         56:ad:ba:c3:1a:b1:19:49:ce:36:aa:ba:3d:49:97:a0:bb:c0:
         47:b0:16:dc:e6:4e:b4:13:18:1a:03:36:3a:a6:6c:ef:98:7b:
         4a:4b:26:34:40:af:8c:9f:29:06:dd:50:74:b1:d1:5c:cf:6c:
         32:aa:91:c3:87:b8:18:ed:09:1c:6d:a3:5d:b6:7e:ff:d0:fc:
         8d:de:6f:2e:cc:36:1a:1f:71:c4:38:9f:c9:bc:dc:0c:cf:25:
         03:75:df:98:31:db:da:97:aa:94:1f:40:a4:fb:42:ae:36:e7:
         87:5e:97:3a
-----BEGIN CERTIFICATE-----
MIIEDzCCAvegAwIBAgIEEAAA2DANBgkqhkiG9w0BAQsFADBEMQswCQYDVQQGEwJE
RTEPMA0GA1UECAwGSGVzc2VuMRQwEgYDVQQKDAtwcml2YWN5aWRlYTEOMAwGA1UE
AwwFQ0EwMDEwHhcNMTkxMTE0MDYyNDI1WhcNMjAxMTEzMDYyNDI1WjA9MSUwIwYD
VQQDDBxzZWxmc2VydmljZSxDTj11c2VyLE89cmVhbG0xMRQwEgYJKoZIhvcNAQkB
FgVtZWluZTCCASIwDQYJKoZIhvcNAQEBBQADggEPADCCAQoCggEBAM881DMOEsTm
2s22VqEcJrsmHIpKc6hYirYes4uZ0h0HwpKJecBp2MjfKGGYHrP+riu9eKn3bkfc
o6AWjIUCwU6S/XJu8MgDKZu4AG7Ag5XINCA2nLPl5OZ2c6MarUCW4FNUAOx2eZrG
DX62vSnsg/PLiaTLbAC6DMV4D/9puJT0BHBDP9ie16f7Xc51jtrnxAexnd5viEu2
TZrP+bz6n80ybfY6Cw0jQnjsl0K/Dk1gVuHTAvIZy4RXkOVwoaKDNYbi2oaf+YrE
ebNSKNrLuzTK09qRSs+NdqKya5v5lv0JKtoRI03wy9aysQ4SbJoZZZiHyuTuJM5E
rJCPnRvFKp0CAwEAAaOCAQ4wggEKMAsGA1UdDwQEAwIFoDAJBgNVHRMEAjAAMBEG
CWCGSAGG+EIBAQQEAwIGQDAzBglghkgBhvhCAQ0EJhYkT3BlblNTTCBHZW5lcmF0
ZWQgU2VydmVyIENlcnRpZmljYXRlMB0GA1UdDgQWBBRNB5Ct/x0N5xrd1i76ujTL
qh8kxjB0BgNVHSMEbTBrgBT0p8DMkUavZPOR8if4yLJviocyc6FIpEYwRDELMAkG
A1UEBhMCREUxDzANBgNVBAgMBkhlc3NlbjEUMBIGA1UECgwLcHJpdmFjeWlkZWEx
DjAMBgNVBAMMBUNBMDAxggkA+8jrrIPNEgcwEwYDVR0lBAwwCgYIKwYBBQUHAwEw
DQYJKoZIhvcNAQELBQADggEBABHSTT31/xWdBufAn3lJfq/84gmWIYB5dyEHvRsm
nyiccWjigJjo9xaJQDmmB/r7XqIwAux7zjJ61Q6rIr6bqOr0Pp0Hdcfju7tlY590
xIq29VuYJM4hkQ73QJo3HWculzBeA04qkfhYm/AaaNJtPttQWY/U3qlykxYpQR1E
KfGA/lGBs7cyYF7rQKi4ciQQjVatusMasRlJzjaquj1Jl6C7wEewFtzmTrQTGBoD
NjqmbO+Ye0pLJjRAr4yfKQbdUHSx0VzPbDKqkcOHuBjtCRxto122fv/Q/I3eby7M
NhofccQ4n8m83AzPJQN135gx29qXqpQfQKT7Qq4254delzo=
-----END CERTIFICATE-----
