Certificate:
    Data:
        Version: 3 (0x2)
        Serial Number: 268435664 (0x100000d0)
        Signature Algorithm: sha256WithRSAEncryption
        Issuer: C=DE, ST=Hessen, O=privacyidea, CN=CA001
        Validity
            Not Before: Nov 14 06:19:21 2019 GMT
            Not After : Nov 13 06:19:21 2020 GMT
        Subject: C=DE, ST=Hessen, O=privacyidea, CN=requester.localdomain
        Subject Public Key Info:
            Public Key Algorithm: rsaEncryption
                RSA Public-Key: (2048 bit)
                Modulus:
                    00:cd:be:14:4f:fa:ce:01:3f:42:22:1b:1d:9c:af:
                    dd:92:d2:7f:db:6c:b7:3e:39:43:43:6b:13:03:f1:
                    05:f4:07:74:bc:76:69:28:0b:af:19:8e:d7:fc:e3:
                    cd:c6:58:f2:ca:7f:08:6d:53:fc:07:02:44:24:c6:
                    b4:34:4c:8c:04:fe:33:0e:40:e2:20:ba:02:73:5a:
                    f7:f5:4f:63:6e:cc:c6:b6:df:54:1d:37:39:7d:51:
                    36:26:5f:bd:dc:3f:a8:8b:6b:a2:ae:b6:9d:d6:21:
                    e7:df:41:b8:7a:28:2a:68:48:ca:a8:2d:ed:e1:e9:
                    46:5e:5a:72:6d:b4:84:38:87:91:fd:94:11:0b:28:
                    84:c6:c2:2f:2a:fb:01:f9:36:7a:09:75:d1:33:88:
                    3c:73:41:5b:c8:bf:94:89:70:a1:f0:c0:b9:2e:50:
                    53:1e:b1:17:64:69:f4:2d:81:e0:a9:0d:0e:32:e9:
                    ba:55:8a:85:f1:1b:6f:49:79:b4:7f:88:c3:0d:3e:
                    54:88:9b:3d:1f:38:8c:04:f3:ee:6a:63:2b:f5:c6:
                    db:b4:83:aa:c4:78:41:3a:7d:4b:e1:c8:3e:71:ca:
                    1b:61:59:ea:c6:c4:ca:32:5e:c9:e9:bf:12:29:e6:
                    c6:c3:63:fe:a0:55:da:7a:f1:60:98:4d:26:ed:fa:
                    70:2d
                Exponent: 65537 (0x10001)
        X509v3 extensions:
            X509v3 Key Usage: 
                Digital Signature, Key Encipherment
            X509v3 Basic Constraints: 
                CA:FALSE
            Netscape Cert Type: 
                SSL Server
            Netscape Comment: 
                OpenSSL Generated Server Certificate
            X509v3 Subject Key Identifier: 
                53:3F:ED:5D:09:07:B3:65:7B:AB:45:C9:24:5B:09:77:80:0A:96:ED
            X509v3 Authority Key Identifier: 
                keyid:F4:A7:C0:CC:91:46:AF:64:F3:91:F2:27:F8:C8:B2:6F:8A:87:32:73
                DirName:/C=DE/ST=Hessen/O=privacyidea/CN=CA001
                serial:FB:C8:EB:AC:83:CD:12:07

            X509v3 Extended Key Usage: 
                TLS Web Server Authentication
    Signature Algorithm: sha256WithRSAEncryption
         80:50:cd:9c:17:ed:32:ad:fa:e8:52:45:f6:3f:f4:b4:62:ef:
         42:88:7e:b4:02:3f:3d:2f:d0:e5:90:55:21:eb:a1:83:e3:49:
         2a:7d:3a:ba:b3:02:7c:8e:ae:62:89:02:1b:0b:f2:9a:47:5f:
         a3:4a:34:18:62:3f:38:15:81:85:48:41:2d:30:db:b6:f6:e1:
         dc:bc:0d:bf:43:88:3a:da:bd:00:d2:b8:54:1b:43:f6:8b:c8:
         87:8c:e7:ac:bc:97:47:53:14:fc:ee:ab:79:c8:37:52:4a:8b:
         50:8a:d8:67:0d:6a:8c:65:50:84:2f:70:91:3b:cb:c4:af:85:
         28:dd:9d:6b:38:30:1c:fb:db:23:71:86:db:40:be:2a:22:13:
         3a:71:cb:a9:23:0f:15:48:fa:00:be:4b:a1:44:d4:01:99:90:
         66:eb:e8:47:95:49:4b:48:3f:21:ad:9f:d9:d4:14:50:b4:78:
         2d:b3:0e:44:1b:11:10:e2:2c:50:1b:12:15:98:5b:fa:e3:87:
         ea:02:0f:39:f5:81:33:1c:bf:70:67:ca:c3:a1:9f:8d:4b:46:
         90:b1:95:c4:9a:d2:73:74:7c:cf:6a:df:60:bf:64:68:32:ec:
         c4:41:28:41:a2:fc:59:2f:c5:39:1f:82:87:1f:c7:63:e1:e3:
         79:f4:74:72
-----BEGIN CERTIFICATE-----
MIIEJjCCAw6gAwIBAgIEEAAA0DANBgkqhkiG9w0BAQsFADBEMQswCQYDVQQGEwJE
RTEPMA0GA1UECAwGSGVzc2VuMRQwEgYDVQQKDAtwcml2YWN5aWRlYTEOMAwGA1UE
AwwFQ0EwMDEwHhcNMTkxMTE0MDYxOTIxWhcNMjAxMTEzMDYxOTIxWjBUMQswCQYD
VQQGEwJERTEPMA0GA1UECAwGSGVzc2VuMRQwEgYDVQQKDAtwcml2YWN5aWRlYTEe
MBwGA1UEAwwVcmVxdWVzdGVyLmxvY2FsZG9tYWluMIIBIjANBgkqhkiG9w0BAQEF
AAOCAQ8AMIIBCgKCAQEAzb4UT/rOAT9CIhsdnK/dktJ/22y3PjlDQ2sTA/EF9Ad0
vHZpKAuvGY7X/OPNxljyyn8IbVP8BwJEJMa0NEyMBP4zDkDiILoCc1r39U9jbszG
tt9UHTc5fVE2Jl+93D+oi2uirrad1iHn30G4eigqaEjKqC3t4elGXlpybbSEOIeR
/ZQRCyiExsIvKvsB+TZ6CXXRM4g8c0FbyL+UiXCh8MC5LlBTHrEXZGn0LYHgqQ0O
Mum6VYqF8RtvSXm0f4jDDT5UiJs9HziMBPPuamMr9cbbtIOqxHhBOn1L4cg+ccob
YVnqxsTKMl7J6b8SKebGw2P+oFXaevFgmE0m7fpwLQIDAQABo4IBDjCCAQowCwYD
VR0PBAQDAgWgMAkGA1UdEwQCMAAwEQYJYIZIAYb4QgEBBAQDAgZAMDMGCWCGSAGG
+EIBDQQmFiRPcGVuU1NMIEdlbmVyYXRlZCBTZXJ2ZXIgQ2VydGlmaWNhdGUwHQYD
VR0OBBYEFFM/7V0JB7Nle6tFySRbCXeACpbtMHQGA1UdIwRtMGuAFPSnwMyRRq9k
85HyJ/jIsm+KhzJzoUikRjBEMQswCQYDVQQGEwJERTEPMA0GA1UECAwGSGVzc2Vu
MRQwEgYDVQQKDAtwcml2YWN5aWRlYTEOMAwGA1UEAwwFQ0EwMDGCCQD7yOusg80S
BzATBgNVHSUEDDAKBggrBgEFBQcDATANBgkqhkiG9w0BAQsFAAOCAQEAgFDNnBft
Mq366FJF9j/0tGLvQoh+tAI/PS/Q5ZBVIeuhg+NJKn06urMCfI6uYokCGwvymkdf
o0o0GGI/OBWBhUhBLTDbtvbh3LwNv0OIOtq9ANK4VBtD9ovIh4znrLyXR1MU/O6r
ecg3UkqLUIrYZw1qjGVQhC9wkTvLxK+FKN2dazgwHPvbI3GG20C+KiITOnHLqSMP
FUj6AL5LoUTUAZmQZuvoR5VJS0g/Ia2f2dQUULR4LbMORBsREOIsUBsSFZhb+uOH
6gIPOfWBMxy/cGfKw6GfjUtGkLGVxJrSc3R8z2rfYL9kaDLsxEEoQaL8WS/FOR+C
hx/HY+HjefR0cg==
-----END CERTIFICATE-----
