Certificate:
    Data:
        Version: 3 (0x2)
        Serial Number: 268435665 (0x100000d1)
        Signature Algorithm: sha256WithRSAEncryption
        Issuer: C=DE, ST=Hessen, O=privacyidea, CN=CA001
        Validity
            Not Before: Nov 14 06:19:21 2019 GMT
            Not After : Nov 13 06:19:21 2020 GMT
        Subject: OU=realm1, CN=cornelius/emailAddress=user@localhost.localdomain
        Subject Public Key Info:
            Public Key Algorithm: rsaEncryption
                RSA Public-Key: (2048 bit)
                Modulus:
                    00:c7:81:e4:9e:9a:3f:56:be:00:b1:83:f9:40:da:
                    b1:c6:2e:b5:c2:36:9f:54:0f:87:87:71:0a:4f:1b:
                    ce:9d:ab:10:a3:4e:72:f0:52:d3:45:24:d8:1d:b8:
                    bb:39:2d:7e:3d:4b:2c:a6:11:c4:e0:db:49:f7:09:
                    5e:70:65:5f:29:a3:0d:7d:be:d2:45:48:3f:4a:ed:
                    5c:e6:cc:d8:d6:dc:17:f1:60:de:c3:62:44:c0:d4:
                    ec:c2:13:c8:01:6d:52:68:ca:04:38:ad:7b:9b:7a:
                    a0:73:07:67:bb:97:c0:04:30:2e:eb:a4:5b:47:7a:
                    4d:76:9f:fb:a4:37:78:24:94:d5:7b:4e:96:de:8e:
                    3d:75:1f:eb:fc:a3:8e:1b:f9:1f:20:88:d7:24:58:
                    d1:18:7a:53:57:aa:5f:48:63:f6:47:5b:dd:37:1c:
                    b6:87:a7:07:9d:2b:b7:21:09:e8:8a:83:6f:8c:c5:
                    34:85:bb:89:38:b3:ac:39:d4:bf:ae:2f:38:a1:f5:
                    e7:b0:7d:fe:a1:d2:77:4b:2b:4a:b8:0d:17:b5:57:
                    9c:86:4a:ef:77:42:be:69:66:bd:93:65:68:90:4f:
                    c3:bf:63:0b:5f:1f:96:51:32:fa:25:f1:b0:31:ba:
                    e2:2e:a6:eb:a2:de:16:d1:94:50:63:c3:a3:6a:0a:
                    c7:d9
                Exponent: 65537 (0x10001)
        X509v3 extensions:
            X509v3 Key Usage: 
                Digital Signature, Key Encipherment
            X509v3 Basic Constraints: 
                CA:FALSE
            Netscape Cert Type: 
                SSL Server
            Netscape Comment: 
                OpenSSL Generated Server Certificate
            X509v3 Subject Key Identifier: 
                2E:F5:38:B9:15:7D:4E:79:10:3A:84:B7:58:A5:28:09:08:D6:0E:D7
            X509v3 Authority Key Identifier: 
                keyid:F4:A7:C0:CC:91:46:AF:64:F3:91:F2:27:F8:C8:B2:6F:8A:87:32:73
                DirName:/C=DE/ST=Hessen/O=privacyidea/CN=CA001
                serial:FB:C8:EB:AC:83:CD:12:07

            X509v3 Extended Key Usage: 
                TLS Web Server Authentication
    Signature Algorithm: sha256WithRSAEncryption
         74:9a:88:f9:f8:13:cd:e3:08:2d:b4:20:d5:2e:68:7c:a5:6c:
         99:a2:e7:5d:bd:4f:f2:cc:c4:20:76:8c:b6:77:4a:95:ce:0d:
         8b:c7:81:f9:86:da:4a:12:ca:33:d6:4e:c3:85:7d:8d:ea:83:
         68:30:6a:d6:ff:f4:3c:64:17:c8:40:bf:e7:9e:fb:7b:7a:b5:
         64:04:cc:4e:02:19:cb:73:34:34:cb:55:3f:33:f3:67:cd:f3:
         e0:57:b9:a3:0c:fd:ff:2d:9a:55:d4:1c:11:34:b0:39:f6:cf:
         5f:2b:dc:11:e7:10:43:06:21:81:d7:fe:95:06:ef:61:e7:4a:
         38:63:5b:04:aa:da:af:58:a1:bc:05:14:67:65:12:87:f5:24:
         79:a1:f1:7a:c1:3b:40:98:d8:c8:5f:07:b5:33:29:c2:08:c2:
         39:67:00:75:ed:cf:a9:98:b9:60:eb:9c:09:f1:67:3c:6f:cd:
         1c:21:c7:94:d9:5c:4a:36:2f:92:47:91:48:62:9e:fd:53:62:
         ce:69:8a:b6:82:0b:25:5e:38:71:4c:c4:30:12:ad:a3:f0:54:
         c1:68:5c:95:7b:63:9f:af:a9:d2:07:f8:90:7f:7b:fc:ca:3c:
         57:0a:82:b3:c6:43:1f:1a:13:53:d7:3c:65:f5:8a:94:e5:b9:
         bc:ef:07:69
-----BEGIN CERTIFICATE-----
MIIEIjCCAwqgAwIBAgIEEAAA0TANBgkqhkiG9w0BAQsFADBEMQswCQYDVQQGEwJE
RTEPMA0GA1UECAwGSGVzc2VuMRQwEgYDVQQKDAtwcml2YWN5aWRlYTEOMAwGA1UE
AwwFQ0EwMDEwHhcNMTkxMTE0MDYxOTIxWhcNMjAxMTEzMDYxOTIxWjBQMQ8wDQYD
VQQLDAZyZWFsbTExEjAQBgNVBAMMCWNvcm5lbGl1czEpMCcGCSqGSIb3DQEJARYa
dXNlckBsb2NhbGhvc3QubG9jYWxkb21haW4wggEiMA0GCSqGSIb3DQEBAQUAA4IB
DwAwggEKAoIBAQDHgeSemj9WvgCxg/lA2rHGLrXCNp9UD4eHcQpPG86dqxCjTnLw
UtNFJNgduLs5LX49SyymEcTg20n3CV5wZV8pow19vtJFSD9K7VzmzNjW3BfxYN7D
YkTA1OzCE8gBbVJoygQ4rXubeqBzB2e7l8AEMC7rpFtHek12n/ukN3gklNV7Tpbe
jj11H+v8o44b+R8giNckWNEYelNXql9IY/ZHW903HLaHpwedK7chCeiKg2+MxTSF
u4k4s6w51L+uLzih9eewff6h0ndLK0q4DRe1V5yGSu93Qr5pZr2TZWiQT8O/Ywtf
H5ZRMvol8bAxuuIupuui3hbRlFBjw6NqCsfZAgMBAAGjggEOMIIBCjALBgNVHQ8E
BAMCBaAwCQYDVR0TBAIwADARBglghkgBhvhCAQEEBAMCBkAwMwYJYIZIAYb4QgEN
BCYWJE9wZW5TU0wgR2VuZXJhdGVkIFNlcnZlciBDZXJ0aWZpY2F0ZTAdBgNVHQ4E
FgQULvU4uRV9TnkQOoS3WKUoCQjWDtcwdAYDVR0jBG0wa4AU9KfAzJFGr2TzkfIn
+Miyb4qHMnOhSKRGMEQxCzAJBgNVBAYTAkRFMQ8wDQYDVQQIDAZIZXNzZW4xFDAS
BgNVBAoMC3ByaXZhY3lpZGVhMQ4wDAYDVQQDDAVDQTAwMYIJAPvI66yDzRIHMBMG
A1UdJQQMMAoGCCsGAQUFBwMBMA0GCSqGSIb3DQEBCwUAA4IBAQB0moj5+BPN4wgt
tCDVLmh8pWyZouddvU/yzMQgdoy2d0qVzg2Lx4H5htpKEsoz1k7DhX2N6oNoMGrW
//Q8ZBfIQL/nnvt7erVkBMxOAhnLczQ0y1U/M/NnzfPgV7mjDP3/LZpV1BwRNLA5
9s9fK9wR5xBDBiGB1/6VBu9h50o4Y1sEqtqvWKG8BRRnZRKH9SR5ofF6wTtAmNjI
Xwe1MynCCMI5ZwB17c+pmLlg65wJ8Wc8b80cIceU2VxKNi+SR5FIYp79U2LOaYq2
ggslXjhxTMQwEq2j8FTBaFyVe2Ofr6nSB/iQf3v8yjxXCoKzxkMfGhNT1zxl9YqU
5bm87wdp
-----END CERTIFICATE-----
