Certificate:
    Data:
        Version: 3 (0x2)
        Serial Number: 268435668 (0x100000d4)
        Signature Algorithm: sha256WithRSAEncryption
        Issuer: C=DE, ST=Hessen, O=privacyidea, CN=CA001
        Validity
            Not Before: Nov 14 06:20:49 2019 GMT
            Not After : Nov 13 06:20:49 2020 GMT
        Subject: CN=Steve Test/emailAddress=steve@openssl.org
        Subject Public Key Info:
            Public Key Algorithm: rsaEncryption
                RSA Public-Key: (2048 bit)
                Modulus:
                    00:d2:81:89:20:51:48:0f:73:f4:11:32:24:d5:1f:
                    1c:fd:5c:f5:b6:e6:c5:f0:52:81:dc:d2:af:66:4a:
                    7c:93:31:61:5c:af:d1:6d:06:70:03:60:7c:72:0c:
                    88:dd:49:cd:9e:02:6c:d2:5a:d7:53:0f:f3:da:be:
                    69:64:b5:0f:0c:00:e3:b3:50:47:a3:b3:9b:ba:13:
                    50:d6:58:5a:4b:ab:39:e0:11:ca:0a:27:67:03:78:
                    22:66:6d:92:1e:1b:5c:49:ae:e6:6b:d1:8e:3b:9d:
                    06:d3:c6:ac:4d:53:43:10:ab:e8:96:c1:87:82:97:
                    99:8f:20:d3:99:12:37:31:84:e1:8a:ff:29:03:5f:
                    22:90:3e:7f:9b:e0:20:c1:ad:dc:ae:4c:39:1a:31:
                    96:17:02:8c:b2:d9:b4:0d:20:12:9b:7d:86:54:fd:
                    33:fd:c1:2a:62:46:f8:60:96:cf:6e:01:6f:22:df:
                    13:47:e7:97:ec:05:72:23:a3:62:f8:fa:ef:ac:9c:
                    72:f0:37:cb:2f:37:cf:90:a8:27:51:86:c6:d7:78:
                    08:8f:7e:25:a2:15:70:a2:fb:1c:b6:15:5e:a0:97:
                    8b:81:4c:09:28:8a:27:3b:94:bc:71:db:5b:71:37:
                    9a:2b:16:e0:6f:b5:c9:f5:4b:4f:20:ba:65:cf:af:
                    ad:ad
                Exponent: 65537 (0x10001)
        X509v3 extensions:
            X509v3 Key Usage: 
                Digital Signature, Key Encipherment
            X509v3 Basic Constraints: 
                CA:FALSE
            Netscape Cert Type: 
                SSL Server
            Netscape Comment: 
                OpenSSL Generated Server Certificate
            X509v3 Subject Key Identifier: 
                E5:25:6D:3E:AF:0D:DD:3F:4C:F2:45:19:39:D5:14:DB:7E:9C:C0:AD
            X509v3 Authority Key Identifier: 
                keyid:F4:A7:C0:CC:91:46:AF:64:F3:91:F2:27:F8:C8:B2:6F:8A:87:32:73
                DirName:/C=DE/ST=Hessen/O=privacyidea/CN=CA001
                serial:FB:C8:EB:AC:83:CD:12:07

            X509v3 Extended Key Usage: 
                TLS Web Server Authentication
    Signature Algorithm: sha256WithRSAEncryption
         30:e2:4e:06:90:3c:d1:fd:82:d4:70:9f:24:dc:63:ad:4a:00:
         e2:ed:98:f1:22:49:77:f2:05:33:11:e3:cb:74:2a:2c:ab:47:
         d5:6a:8f:61:5f:ad:d7:b7:64:18:4c:5d:1c:fe:46:5f:98:d7:
         ba:3f:f2:6d:ef:aa:9c:01:ab:41:bc:c7:d8:0c:ad:ee:e9:80:
         b0:c2:ba:0d:a4:ce:0e:13:84:61:c3:df:4c:7a:e5:a8:0d:38:
         e6:69:cb:aa:f1:08:66:7b:4c:19:a6:60:f6:e5:51:1c:42:a1:
         4f:5b:aa:0c:68:a5:6b:a8:d2:3d:06:9a:23:1c:fe:4b:b4:e1:
         a6:42:f3:38:79:5a:97:fc:06:76:6e:e8:70:0e:2f:82:14:61:
         b7:09:84:de:bd:32:97:ca:c5:f4:3b:c1:6c:e6:35:8b:1f:16:
         71:0d:11:40:d5:94:ab:d5:f2:56:56:b1:50:b0:94:f5:d2:0b:
         15:c1:85:8a:0f:9d:83:9d:13:00:7c:e1:2f:be:1c:70:86:98:
         a1:cf:fc:11:f0:28:27:ac:4f:7e:ac:eb:da:6c:3b:fe:1c:8e:
         f9:15:69:3b:31:20:0d:65:ea:75:58:89:c4:12:f9:9f:56:c1:
         b1:4f:77:bd:c4:0b:e8:00:ee:ef:b2:ea:c2:47:c2:fe:79:62:
         3e:18:4a:d2
-----BEGIN CERTIFICATE-----
MIIECTCCAvGgAwIBAgIEEAAA1DANBgkqhkiG9w0BAQsFADBEMQswCQYDVQQGEwJE
RTEPMA0GA1UECAwGSGVzc2VuMRQwEgYDVQQKDAtwcml2YWN5aWRlYTEOMAwGA1UE
AwwFQ0EwMDEwHhcNMTkxMTE0MDYyMDQ5WhcNMjAxMTEzMDYyMDQ5WjA3MRMwEQYD
VQQDDApTdGV2ZSBUZXN0MSAwHgYJKoZIhvcNAQkBFhFzdGV2ZUBvcGVuc3NsLm9y
ZzCCASIwDQYJKoZIhvcNAQEBBQADggEPADCCAQoCggEBANKBiSBRSA9z9BEyJNUf
HP1c9bbmxfBSgdzSr2ZKfJMxYVyv0W0GcANgfHIMiN1JzZ4CbNJa11MP89q+aWS1
DwwA47NQR6Ozm7oTUNZYWkurOeARygonZwN4ImZtkh4bXEmu5mvRjjudBtPGrE1T
QxCr6JbBh4KXmY8g05kSNzGE4Yr/KQNfIpA+f5vgIMGt3K5MORoxlhcCjLLZtA0g
Ept9hlT9M/3BKmJG+GCWz24BbyLfE0fnl+wFciOjYvj676yccvA3yy83z5CoJ1GG
xtd4CI9+JaIVcKL7HLYVXqCXi4FMCSiKJzuUvHHbW3E3misW4G+1yfVLTyC6Zc+v
ra0CAwEAAaOCAQ4wggEKMAsGA1UdDwQEAwIFoDAJBgNVHRMEAjAAMBEGCWCGSAGG
+EIBAQQEAwIGQDAzBglghkgBhvhCAQ0EJhYkT3BlblNTTCBHZW5lcmF0ZWQgU2Vy
dmVyIENlcnRpZmljYXRlMB0GA1UdDgQWBBTlJW0+rw3dP0zyRRk51RTbfpzArTB0
BgNVHSMEbTBrgBT0p8DMkUavZPOR8if4yLJviocyc6FIpEYwRDELMAkGA1UEBhMC
REUxDzANBgNVBAgMBkhlc3NlbjEUMBIGA1UECgwLcHJpdmFjeWlkZWExDjAMBgNV
BAMMBUNBMDAxggkA+8jrrIPNEgcwEwYDVR0lBAwwCgYIKwYBBQUHAwEwDQYJKoZI
hvcNAQELBQADggEBADDiTgaQPNH9gtRwnyTcY61KAOLtmPEiSXfyBTMR48t0Kiyr
R9Vqj2Ffrde3ZBhMXRz+Rl+Y17o/8m3vqpwBq0G8x9gMre7pgLDCug2kzg4ThGHD
30x65agNOOZpy6rxCGZ7TBmmYPblURxCoU9bqgxopWuo0j0GmiMc/ku04aZC8zh5
Wpf8BnZu6HAOL4IUYbcJhN69MpfKxfQ7wWzmNYsfFnENEUDVlKvV8lZWsVCwlPXS
CxXBhYoPnYOdEwB84S++HHCGmKHP/BHwKCesT36s69psO/4cjvkVaTsxIA1l6nVY
icQS+Z9WwbFPd73EC+gA7u+y6sJHwv55Yj4YStI=
-----END CERTIFICATE-----
