Certificate:
    Data:
        Version: 3 (0x2)
        Serial Number: 268435677 (0x100000dd)
        Signature Algorithm: sha256WithRSAEncryption
        Issuer: C=DE, ST=Hessen, O=privacyidea, CN=CA001
        Validity
            Not Before: Oct 24 09:40:49 2019 GMT
            Not After : Oct 23 09:40:49 2020 GMT
        Subject: OU=realm1, CN=cornelius/emailAddress=user@localhost.localdomain
        Subject Public Key Info:
            Public Key Algorithm: rsaEncryption
                RSA Public-Key: (2048 bit)
                Modulus:
                    00:e1:1e:a4:bc:cf:7d:45:dd:a3:72:c7:ab:f4:e8:
                    12:66:e6:72:fa:b3:07:ce:1e:9e:da:c7:8c:94:4c:
                    4e:44:42:ee:a6:88:34:36:4a:d0:9f:9b:f9:54:5b:
                    53:23:51:50:60:ee:b1:36:41:8f:2c:05:41:b4:fa:
                    1b:3a:89:29:0c:93:00:19:6e:84:8b:2d:ab:3b:fd:
                    d7:dd:cf:e1:03:1f:14:ec:ff:1a:98:41:78:cf:8f:
                    28:63:63:2e:49:a1:79:aa:e3:61:10:e4:a1:63:9f:
                    10:86:4e:25:79:bc:3a:38:b7:dd:c8:ac:23:d2:98:
                    ad:e9:38:d1:6d:38:96:76:6f:6e:6d:37:01:a5:0a:
                    7a:91:63:ce:aa:ac:06:3f:ec:b7:eb:50:61:1a:8c:
                    7f:6f:19:9c:c2:5d:77:4b:dc:b9:5a:53:cf:84:8c:
                    af:15:d0:a3:a3:60:da:77:47:09:68:88:f2:8f:af:
                    21:b4:22:f4:36:35:65:2b:18:de:a8:a5:ef:96:6e:
                    df:4a:87:7c:0c:e9:e7:bc:f4:71:db:09:71:3e:6a:
                    2c:b4:de:fb:40:a2:56:8a:31:4c:3d:53:93:61:84:
                    c2:2e:f7:f0:0c:4f:3a:10:77:bb:e2:d6:ba:06:d0:
                    c2:3b:6b:21:b0:d4:23:6e:37:98:e7:99:25:4e:d5:
                    81:6f
                Exponent: 65537 (0x10001)
        X509v3 extensions:
            X509v3 Key Usage: 
                Digital Signature, Key Encipherment
            X509v3 Basic Constraints: 
                CA:FALSE
            Netscape Cert Type: 
                SSL Server
            Netscape Comment: 
                OpenSSL Generated Server Certificate
            X509v3 Subject Key Identifier: 
                D5:FC:3D:5E:71:6F:C1:FF:73:1E:A2:EF:BD:1C:65:80:83:4C:D6:6D
            X509v3 Authority Key Identifier: 
                keyid:F4:A7:C0:CC:91:46:AF:64:F3:91:F2:27:F8:C8:B2:6F:8A:87:32:73
                DirName:/C=DE/ST=Hessen/O=privacyidea/CN=CA001
                serial:FB:C8:EB:AC:83:CD:12:07

            X509v3 Extended Key Usage: 
                TLS Web Server Authentication
    Signature Algorithm: sha256WithRSAEncryption
         03:2f:2c:39:3d:42:a4:93:c0:ae:b2:81:35:1f:69:f0:63:64:
         9f:d8:a6:6f:68:ed:a4:2e:95:51:e3:f4:8c:c8:b4:9c:e2:28:
         d4:f3:cf:f6:97:68:e2:40:14:b9:72:13:b0:e2:fe:46:f9:07:
         50:00:07:60:9e:18:13:96:1a:13:32:8d:75:bf:24:d5:e3:98:
         34:b2:ac:08:2c:d2:ef:dd:bf:f7:67:9a:e8:88:9c:b3:49:75:
         4d:1c:bb:6a:07:fb:a1:f2:5b:6e:5c:e7:93:82:03:b1:17:24:
         9a:12:df:1c:35:87:b4:79:3b:f9:24:d3:d4:52:3a:a4:da:0d:
         74:31:7d:9f:69:87:12:1a:87:c6:7c:f9:ef:c7:dc:65:31:2d:
         6e:e3:28:49:19:b7:7e:c6:4d:1f:60:9c:ec:ca:6c:7f:9d:96:
         9b:26:c2:3a:be:75:2c:7c:3f:08:42:bb:42:df:ae:d3:77:ff:
         c0:fd:0a:32:73:54:66:b6:3d:0f:bd:9c:e3:35:9b:63:d4:b0:
         b7:30:87:8b:5a:94:df:9e:0d:b7:a5:39:e4:90:30:b6:95:b4:
         d2:ae:39:65:1e:59:b0:b8:e1:d3:bc:8a:70:80:ab:66:31:fb:
         14:d2:ab:f9:b3:f8:40:5e:df:62:ff:ab:a0:1f:b6:02:d2:d8:
         22:a2:d0:ac
-----BEGIN CERTIFICATE-----
MIIEIjCCAwqgAwIBAgIEEAAA3TANBgkqhkiG9w0BAQsFADBEMQswCQYDVQQGEwJE
RTEPMA0GA1UECAwGSGVzc2VuMRQwEgYDVQQKDAtwcml2YWN5aWRlYTEOMAwGA1UE
AwwFQ0EwMDEwHhcNMTkxMDI0MDk0MDQ5WhcNMjAxMDIzMDk0MDQ5WjBQMQ8wDQYD
VQQLDAZyZWFsbTExEjAQBgNVBAMMCWNvcm5lbGl1czEpMCcGCSqGSIb3DQEJARYa
dXNlckBsb2NhbGhvc3QubG9jYWxkb21haW4wggEiMA0GCSqGSIb3DQEBAQUAA4IB
DwAwggEKAoIBAQDhHqS8z31F3aNyx6v06BJm5nL6swfOHp7ax4yUTE5EQu6miDQ2
StCfm/lUW1MjUVBg7rE2QY8sBUG0+hs6iSkMkwAZboSLLas7/dfdz+EDHxTs/xqY
QXjPjyhjYy5JoXmq42EQ5KFjnxCGTiV5vDo4t93IrCPSmK3pONFtOJZ2b25tNwGl
CnqRY86qrAY/7LfrUGEajH9vGZzCXXdL3LlaU8+EjK8V0KOjYNp3RwloiPKPryG0
IvQ2NWUrGN6ope+Wbt9Kh3wM6ee89HHbCXE+aiy03vtAolaKMUw9U5NhhMIu9/AM
TzoQd7vi1roG0MI7ayGw1CNuN5jnmSVO1YFvAgMBAAGjggEOMIIBCjALBgNVHQ8E
BAMCBaAwCQYDVR0TBAIwADARBglghkgBhvhCAQEEBAMCBkAwMwYJYIZIAYb4QgEN
BCYWJE9wZW5TU0wgR2VuZXJhdGVkIFNlcnZlciBDZXJ0aWZpY2F0ZTAdBgNVHQ4E
FgQU1fw9XnFvwf9zHqLvvRxlgINM1m0wdAYDVR0jBG0wa4AU9KfAzJFGr2TzkfIn
+Miyb4qHMnOhSKRGMEQxCzAJBgNVBAYTAkRFMQ8wDQYDVQQIDAZIZXNzZW4xFDAS
BgNVBAoMC3ByaXZhY3lpZGVhMQ4wDAYDVQQDDAVDQTAwMYIJAPvI66yDzRIHMBMG
A1UdJQQMMAoGCCsGAQUFBwMBMA0GCSqGSIb3DQEBCwUAA4IBAQADLyw5PUKkk8Cu
soE1H2nwY2Sf2KZvaO2kLpVR4/SMyLSc4ijU88/2l2jiQBS5chOw4v5G+QdQAAdg
nhgTlhoTMo11vyTV45g0sqwILNLv3b/3Z5roiJyzSXVNHLtqB/uh8ltuXOeTggOx
FySaEt8cNYe0eTv5JNPUUjqk2g10MX2faYcSGofGfPnvx9xlMS1u4yhJGbd+xk0f
YJzsymx/nZabJsI6vnUsfD8IQrtC367Td//A/Qoyc1Rmtj0PvZzjNZtj1LC3MIeL
WpTfng23pTnkkDC2lbTSrjllHlmwuOHTvIpwgKtmMfsU0qv5s/hAXt9i/6ugH7YC
0tgiotCs
-----END CERTIFICATE-----
