Certificate:
    Data:
        Version: 3 (0x2)
        Serial Number: 268435669 (0x100000d5)
        Signature Algorithm: sha256WithRSAEncryption
        Issuer: C=DE, ST=Hessen, O=privacyidea, CN=CA001
        Validity
            Not Before: Nov 14 06:20:49 2019 GMT
            Not After : Dec  3 06:20:49 2021 GMT
        Subject: CN=Steve Test/emailAddress=steve@openssl.org
        Subject Public Key Info:
            Public Key Algorithm: rsaEncryption
                RSA Public-Key: (2048 bit)
                Modulus:
                    00:d2:81:89:20:51:48:0f:73:f4:11:32:24:d5:1f:
                    1c:fd:5c:f5:b6:e6:c5:f0:52:81:dc:d2:af:66:4a:
                    7c:93:31:61:5c:af:d1:6d:06:70:03:60:7c:72:0c:
                    88:dd:49:cd:9e:02:6c:d2:5a:d7:53:0f:f3:da:be:
                    69:64:b5:0f:0c:00:e3:b3:50:47:a3:b3:9b:ba:13:
                    50:d6:58:5a:4b:ab:39:e0:11:ca:0a:27:67:03:78:
                    22:66:6d:92:1e:1b:5c:49:ae:e6:6b:d1:8e:3b:9d:
                    06:d3:c6:ac:4d:53:43:10:ab:e8:96:c1:87:82:97:
                    99:8f:20:d3:99:12:37:31:84:e1:8a:ff:29:03:5f:
                    22:90:3e:7f:9b:e0:20:c1:ad:dc:ae:4c:39:1a:31:
                    96:17:02:8c:b2:d9:b4:0d:20:12:9b:7d:86:54:fd:
                    33:fd:c1:2a:62:46:f8:60:96:cf:6e:01:6f:22:df:
                    13:47:e7:97:ec:05:72:23:a3:62:f8:fa:ef:ac:9c:
                    72:f0:37:cb:2f:37:cf:90:a8:27:51:86:c6:d7:78:
                    08:8f:7e:25:a2:15:70:a2:fb:1c:b6:15:5e:a0:97:
                    8b:81:4c:09:28:8a:27:3b:94:bc:71:db:5b:71:37:
                    9a:2b:16:e0:6f:b5:c9:f5:4b:4f:20:ba:65:cf:af:
                    ad:ad
                Exponent: 65537 (0x10001)
        X509v3 extensions:
            X509v3 Key Usage: 
                Digital Signature, Key Encipherment
            X509v3 Basic Constraints: 
                CA:FALSE
            Netscape Cert Type: 
                SSL Server
            Netscape Comment: 
                OpenSSL Generated Server Certificate
            X509v3 Subject Key Identifier: 
                E5:25:6D:3E:AF:0D:DD:3F:4C:F2:45:19:39:D5:14:DB:7E:9C:C0:AD
            X509v3 Authority Key Identifier: 
                keyid:F4:A7:C0:CC:91:46:AF:64:F3:91:F2:27:F8:C8:B2:6F:8A:87:32:73
                DirName:/C=DE/ST=Hessen/O=privacyidea/CN=CA001
                serial:FB:C8:EB:AC:83:CD:12:07

            X509v3 Extended Key Usage: 
                TLS Web Server Authentication
    Signature Algorithm: sha256WithRSAEncryption
         5b:9e:9e:d8:24:34:34:7b:08:ae:b5:c2:b1:b5:bc:80:ce:bb:
         32:24:ae:6a:97:37:03:0e:70:5d:9a:13:e3:21:b8:25:d5:9b:
         b6:78:f8:15:91:e5:3f:99:2b:d9:2e:51:8b:23:b8:55:5a:78:
         ef:a1:3d:34:f6:64:ff:37:cd:66:6a:ef:37:ec:53:3c:13:3e:
         2e:db:33:4f:ab:05:9e:37:a6:46:13:b9:ad:37:fe:45:2c:50:
         d1:7f:3c:35:fc:1b:af:46:f0:75:e0:d5:03:3a:4f:6e:7d:9a:
         b8:f8:a5:30:42:4e:d1:a6:d1:29:16:a6:30:37:4a:f6:e2:21:
         63:49:d7:96:51:e8:0d:1d:b7:c7:0e:67:5b:91:b5:87:39:4e:
         6e:65:6c:ad:8d:84:73:ad:3e:57:4c:e8:02:42:c9:4f:30:90:
         71:28:30:dc:c9:90:ae:60:ca:aa:b4:1d:fb:96:9b:0d:77:26:
         43:6b:e2:5f:1f:13:08:64:9c:4c:73:c7:43:11:a6:9e:b6:1f:
         ea:d4:9d:c6:d6:5c:a1:8d:be:45:2a:90:57:7b:10:1d:65:f9:
         1a:d1:43:95:4c:96:40:67:1f:49:4b:8f:45:35:ed:ff:ce:8d:
         ad:03:0b:2f:4a:22:4f:c8:ed:23:89:d6:f8:f6:2b:1d:21:93:
         2f:a8:cc:e1
-----BEGIN CERTIFICATE-----
MIIECTCCAvGgAwIBAgIEEAAA1TANBgkqhkiG9w0BAQsFADBEMQswCQYDVQQGEwJE
RTEPMA0GA1UECAwGSGVzc2VuMRQwEgYDVQQKDAtwcml2YWN5aWRlYTEOMAwGA1UE
AwwFQ0EwMDEwHhcNMTkxMTE0MDYyMDQ5WhcNMjExMjAzMDYyMDQ5WjA3MRMwEQYD
VQQDDApTdGV2ZSBUZXN0MSAwHgYJKoZIhvcNAQkBFhFzdGV2ZUBvcGVuc3NsLm9y
ZzCCASIwDQYJKoZIhvcNAQEBBQADggEPADCCAQoCggEBANKBiSBRSA9z9BEyJNUf
HP1c9bbmxfBSgdzSr2ZKfJMxYVyv0W0GcANgfHIMiN1JzZ4CbNJa11MP89q+aWS1
DwwA47NQR6Ozm7oTUNZYWkurOeARygonZwN4ImZtkh4bXEmu5mvRjjudBtPGrE1T
QxCr6JbBh4KXmY8g05kSNzGE4Yr/KQNfIpA+f5vgIMGt3K5MORoxlhcCjLLZtA0g
Ept9hlT9M/3BKmJG+GCWz24BbyLfE0fnl+wFciOjYvj676yccvA3yy83z5CoJ1GG
xtd4CI9+JaIVcKL7HLYVXqCXi4FMCSiKJzuUvHHbW3E3misW4G+1yfVLTyC6Zc+v
ra0CAwEAAaOCAQ4wggEKMAsGA1UdDwQEAwIFoDAJBgNVHRMEAjAAMBEGCWCGSAGG
+EIBAQQEAwIGQDAzBglghkgBhvhCAQ0EJhYkT3BlblNTTCBHZW5lcmF0ZWQgU2Vy
dmVyIENlcnRpZmljYXRlMB0GA1UdDgQWBBTlJW0+rw3dP0zyRRk51RTbfpzArTB0
BgNVHSMEbTBrgBT0p8DMkUavZPOR8if4yLJviocyc6FIpEYwRDELMAkGA1UEBhMC
REUxDzANBgNVBAgMBkhlc3NlbjEUMBIGA1UECgwLcHJpdmFjeWlkZWExDjAMBgNV
BAMMBUNBMDAxggkA+8jrrIPNEgcwEwYDVR0lBAwwCgYIKwYBBQUHAwEwDQYJKoZI
hvcNAQELBQADggEBAFuentgkNDR7CK61wrG1vIDOuzIkrmqXNwMOcF2aE+MhuCXV
m7Z4+BWR5T+ZK9kuUYsjuFVaeO+hPTT2ZP83zWZq7zfsUzwTPi7bM0+rBZ43pkYT
ua03/kUsUNF/PDX8G69G8HXg1QM6T259mrj4pTBCTtGm0SkWpjA3SvbiIWNJ15ZR
6A0dt8cOZ1uRtYc5Tm5lbK2NhHOtPldM6AJCyU8wkHEoMNzJkK5gyqq0HfuWmw13
JkNr4l8fEwhknExzx0MRpp62H+rUncbWXKGNvkUqkFd7EB1l+RrRQ5VMlkBnH0lL
j0U17f/Oja0DCy9KIk/I7SOJ1vj2Kx0hky+ozOE=
-----END CERTIFICATE-----
