Certificate:
    Data:
        Version: 3 (0x2)
        Serial Number: 268435666 (0x100000d2)
        Signature Algorithm: sha256WithRSAEncryption
        Issuer: C=DE, ST=Hessen, O=privacyidea, CN=CA001
        Validity
            Not Before: Nov 14 06:20:49 2019 GMT
            Not After : Nov 13 06:20:49 2020 GMT
        Subject: C=DE, ST=Hessen, O=privacyidea, CN=requester.localdomain
        Subject Public Key Info:
            Public Key Algorithm: rsaEncryption
                RSA Public-Key: (2048 bit)
                Modulus:
                    00:cd:be:14:4f:fa:ce:01:3f:42:22:1b:1d:9c:af:
                    dd:92:d2:7f:db:6c:b7:3e:39:43:43:6b:13:03:f1:
                    05:f4:07:74:bc:76:69:28:0b:af:19:8e:d7:fc:e3:
                    cd:c6:58:f2:ca:7f:08:6d:53:fc:07:02:44:24:c6:
                    b4:34:4c:8c:04:fe:33:0e:40:e2:20:ba:02:73:5a:
                    f7:f5:4f:63:6e:cc:c6:b6:df:54:1d:37:39:7d:51:
                    36:26:5f:bd:dc:3f:a8:8b:6b:a2:ae:b6:9d:d6:21:
                    e7:df:41:b8:7a:28:2a:68:48:ca:a8:2d:ed:e1:e9:
                    46:5e:5a:72:6d:b4:84:38:87:91:fd:94:11:0b:28:
                    84:c6:c2:2f:2a:fb:01:f9:36:7a:09:75:d1:33:88:
                    3c:73:41:5b:c8:bf:94:89:70:a1:f0:c0:b9:2e:50:
                    53:1e:b1:17:64:69:f4:2d:81:e0:a9:0d:0e:32:e9:
                    ba:55:8a:85:f1:1b:6f:49:79:b4:7f:88:c3:0d:3e:
                    54:88:9b:3d:1f:38:8c:04:f3:ee:6a:63:2b:f5:c6:
                    db:b4:83:aa:c4:78:41:3a:7d:4b:e1:c8:3e:71:ca:
                    1b:61:59:ea:c6:c4:ca:32:5e:c9:e9:bf:12:29:e6:
                    c6:c3:63:fe:a0:55:da:7a:f1:60:98:4d:26:ed:fa:
                    70:2d
                Exponent: 65537 (0x10001)
        X509v3 extensions:
            X509v3 Key Usage: 
                Digital Signature, Key Encipherment
            X509v3 Basic Constraints: 
                CA:FALSE
            Netscape Cert Type: 
                SSL Server
            Netscape Comment: 
                OpenSSL Generated Server Certificate
            X509v3 Subject Key Identifier: 
                53:3F:ED:5D:09:07:B3:65:7B:AB:45:C9:24:5B:09:77:80:0A:96:ED
            X509v3 Authority Key Identifier: 
                keyid:F4:A7:C0:CC:91:46:AF:64:F3:91:F2:27:F8:C8:B2:6F:8A:87:32:73
                DirName:/C=DE/ST=Hessen/O=privacyidea/CN=CA001
                serial:FB:C8:EB:AC:83:CD:12:07

            X509v3 Extended Key Usage: 
                TLS Web Server Authentication
    Signature Algorithm: sha256WithRSAEncryption
         0b:d9:3d:32:1e:41:c8:ac:09:4a:1c:c8:08:c9:e1:ea:12:b4:
         b4:83:86:20:38:0d:ca:ab:c8:7b:54:48:55:f6:65:82:9e:7a:
         ae:17:f4:dd:3e:e5:83:bc:fa:83:4f:05:0d:8e:86:bf:b1:3c:
         9e:0c:a5:97:f9:46:b6:f2:d1:48:18:6c:9b:a1:49:3d:57:72:
         b1:6b:00:a4:34:7b:37:b2:7e:0e:b7:b6:54:e5:a2:22:15:f3:
         fe:7b:24:a5:b3:1f:92:f6:ed:cd:0e:f7:50:0f:76:f3:bc:f7:
         ea:63:67:f4:d0:48:64:cf:29:f2:10:a7:26:80:d5:76:1d:e2:
         cb:3d:7b:ac:e9:96:16:32:8d:84:32:a5:ab:c6:65:6e:7a:a1:
         a8:17:f5:4e:58:a4:bc:5f:4a:fa:1e:10:af:07:26:5f:ec:d7:
         2b:01:f0:56:cb:52:1b:2b:6d:00:5f:d4:f8:be:14:a9:8a:bd:
         70:fc:81:33:f0:e3:9b:2a:1b:48:cd:ba:62:4d:f1:e9:dd:74:
         66:2b:4c:20:ad:d3:2a:86:e2:54:5b:54:0e:70:49:da:8a:f9:
         6f:67:3a:c4:75:39:06:52:97:34:bc:90:ed:3c:36:9c:21:f1:
         43:03:30:69:37:b1:d7:ed:59:80:05:62:05:00:89:22:eb:4a:
         b6:2c:4c:f0
-----BEGIN CERTIFICATE-----
MIIEJjCCAw6gAwIBAgIEEAAA0jANBgkqhkiG9w0BAQsFADBEMQswCQYDVQQGEwJE
RTEPMA0GA1UECAwGSGVzc2VuMRQwEgYDVQQKDAtwcml2YWN5aWRlYTEOMAwGA1UE
AwwFQ0EwMDEwHhcNMTkxMTE0MDYyMDQ5WhcNMjAxMTEzMDYyMDQ5WjBUMQswCQYD
VQQGEwJERTEPMA0GA1UECAwGSGVzc2VuMRQwEgYDVQQKDAtwcml2YWN5aWRlYTEe
MBwGA1UEAwwVcmVxdWVzdGVyLmxvY2FsZG9tYWluMIIBIjANBgkqhkiG9w0BAQEF
AAOCAQ8AMIIBCgKCAQEAzb4UT/rOAT9CIhsdnK/dktJ/22y3PjlDQ2sTA/EF9Ad0
vHZpKAuvGY7X/OPNxljyyn8IbVP8BwJEJMa0NEyMBP4zDkDiILoCc1r39U9jbszG
tt9UHTc5fVE2Jl+93D+oi2uirrad1iHn30G4eigqaEjKqC3t4elGXlpybbSEOIeR
/ZQRCyiExsIvKvsB+TZ6CXXRM4g8c0FbyL+UiXCh8MC5LlBTHrEXZGn0LYHgqQ0O
Mum6VYqF8RtvSXm0f4jDDT5UiJs9HziMBPPuamMr9cbbtIOqxHhBOn1L4cg+ccob
YVnqxsTKMl7J6b8SKebGw2P+oFXaevFgmE0m7fpwLQIDAQABo4IBDjCCAQowCwYD
VR0PBAQDAgWgMAkGA1UdEwQCMAAwEQYJYIZIAYb4QgEBBAQDAgZAMDMGCWCGSAGG
+EIBDQQmFiRPcGVuU1NMIEdlbmVyYXRlZCBTZXJ2ZXIgQ2VydGlmaWNhdGUwHQYD
VR0OBBYEFFM/7V0JB7Nle6tFySRbCXeACpbtMHQGA1UdIwRtMGuAFPSnwMyRRq9k
85HyJ/jIsm+KhzJzoUikRjBEMQswCQYDVQQGEwJERTEPMA0GA1UECAwGSGVzc2Vu
MRQwEgYDVQQKDAtwcml2YWN5aWRlYTEOMAwGA1UEAwwFQ0EwMDGCCQD7yOusg80S
BzATBgNVHSUEDDAKBggrBgEFBQcDATANBgkqhkiG9w0BAQsFAAOCAQEAC9k9Mh5B
yKwJShzICMnh6hK0tIOGIDgNyqvIe1RIVfZlgp56rhf03T7lg7z6g08FDY6Gv7E8
ngyll/lGtvLRSBhsm6FJPVdysWsApDR7N7J+Dre2VOWiIhXz/nskpbMfkvbtzQ73
UA9287z36mNn9NBIZM8p8hCnJoDVdh3iyz17rOmWFjKNhDKlq8ZlbnqhqBf1Tlik
vF9K+h4QrwcmX+zXKwHwVstSGyttAF/U+L4UqYq9cPyBM/DjmyobSM26Yk3x6d10
ZitMIK3TKobiVFtUDnBJ2or5b2c6xHU5BlKXNLyQ7Tw2nCHxQwMwaTex1+1ZgAVi
BQCJIutKtixM8A==
-----END CERTIFICATE-----
