Certificate:
    Data:
        Version: 3 (0x2)
        Serial Number: 268435674 (0x100000da)
        Signature Algorithm: sha256WithRSAEncryption
        Issuer: C=DE, ST=Hessen, O=privacyidea, CN=CA001
        Validity
            Not Before: Oct 24 09:01:01 2019 GMT
            Not After : Oct 23 09:01:01 2020 GMT
        Subject: C=DE, ST=Hessen, O=privacyidea, CN=requester.localdomain
        Subject Public Key Info:
            Public Key Algorithm: rsaEncryption
                RSA Public-Key: (2048 bit)
                Modulus:
                    00:cd:be:14:4f:fa:ce:01:3f:42:22:1b:1d:9c:af:
                    dd:92:d2:7f:db:6c:b7:3e:39:43:43:6b:13:03:f1:
                    05:f4:07:74:bc:76:69:28:0b:af:19:8e:d7:fc:e3:
                    cd:c6:58:f2:ca:7f:08:6d:53:fc:07:02:44:24:c6:
                    b4:34:4c:8c:04:fe:33:0e:40:e2:20:ba:02:73:5a:
                    f7:f5:4f:63:6e:cc:c6:b6:df:54:1d:37:39:7d:51:
                    36:26:5f:bd:dc:3f:a8:8b:6b:a2:ae:b6:9d:d6:21:
                    e7:df:41:b8:7a:28:2a:68:48:ca:a8:2d:ed:e1:e9:
                    46:5e:5a:72:6d:b4:84:38:87:91:fd:94:11:0b:28:
                    84:c6:c2:2f:2a:fb:01:f9:36:7a:09:75:d1:33:88:
                    3c:73:41:5b:c8:bf:94:89:70:a1:f0:c0:b9:2e:50:
                    53:1e:b1:17:64:69:f4:2d:81:e0:a9:0d:0e:32:e9:
                    ba:55:8a:85:f1:1b:6f:49:79:b4:7f:88:c3:0d:3e:
                    54:88:9b:3d:1f:38:8c:04:f3:ee:6a:63:2b:f5:c6:
                    db:b4:83:aa:c4:78:41:3a:7d:4b:e1:c8:3e:71:ca:
                    1b:61:59:ea:c6:c4:ca:32:5e:c9:e9:bf:12:29:e6:
                    c6:c3:63:fe:a0:55:da:7a:f1:60:98:4d:26:ed:fa:
                    70:2d
                Exponent: 65537 (0x10001)
        X509v3 extensions:
            X509v3 Key Usage: 
                Digital Signature, Key Encipherment
            X509v3 Basic Constraints: 
                CA:FALSE
            Netscape Cert Type: 
                SSL Server
            Netscape Comment: 
                OpenSSL Generated Server Certificate
            X509v3 Subject Key Identifier: 
                53:3F:ED:5D:09:07:B3:65:7B:AB:45:C9:24:5B:09:77:80:0A:96:ED
            X509v3 Authority Key Identifier: 
                keyid:F4:A7:C0:CC:91:46:AF:64:F3:91:F2:27:F8:C8:B2:6F:8A:87:32:73
                DirName:/C=DE/ST=Hessen/O=privacyidea/CN=CA001
                serial:FB:C8:EB:AC:83:CD:12:07

            X509v3 Extended Key Usage: 
                TLS Web Server Authentication
    Signature Algorithm: sha256WithRSAEncryption
         80:35:fc:db:25:97:6a:69:92:6b:5d:da:33:3b:f2:bc:bc:a5:
         d6:bb:19:cd:cf:c4:17:21:5c:0a:ed:bd:d6:b9:83:d4:31:cb:
         5e:03:68:a2:44:fc:cf:6a:ea:9c:94:db:63:0c:17:fd:77:e4:
         77:cb:c2:77:3e:d1:2f:03:ae:af:9b:35:71:72:ed:6a:2f:8f:
         34:e5:ac:f3:81:b6:2b:fa:52:54:b1:92:7d:32:51:99:ba:fd:
         a3:bb:68:87:63:62:4a:35:6a:78:fb:da:c2:6c:9f:c1:f9:66:
         e3:f9:0d:d0:b7:98:2b:28:11:6b:c0:46:57:04:2d:cf:32:1a:
         a6:d1:77:3d:01:91:94:bb:34:e2:70:5c:15:cf:22:d6:af:6f:
         16:36:1c:4e:d8:d9:0a:44:c4:6f:93:b7:9d:4a:c3:71:94:4a:
         47:8f:fc:9a:f1:9c:94:0f:3c:5a:2c:bb:24:ba:53:57:36:50:
         6f:5e:4b:d4:23:69:ae:e4:11:89:e6:e3:36:05:b5:72:53:80:
         fc:ea:c2:32:0b:b3:61:35:91:19:29:40:96:59:7e:1c:ae:52:
         fa:fd:c4:a0:5a:ab:61:bf:4c:65:a2:78:db:6f:ad:8f:76:42:
         3f:ca:73:ca:e1:45:a6:4d:47:47:f4:2a:f8:62:38:9a:63:64:
         f2:2d:01:ba
-----BEGIN CERTIFICATE-----
MIIEJjCCAw6gAwIBAgIEEAAA2jANBgkqhkiG9w0BAQsFADBEMQswCQYDVQQGEwJE
RTEPMA0GA1UECAwGSGVzc2VuMRQwEgYDVQQKDAtwcml2YWN5aWRlYTEOMAwGA1UE
AwwFQ0EwMDEwHhcNMTkxMDI0MDkwMTAxWhcNMjAxMDIzMDkwMTAxWjBUMQswCQYD
VQQGEwJERTEPMA0GA1UECAwGSGVzc2VuMRQwEgYDVQQKDAtwcml2YWN5aWRlYTEe
MBwGA1UEAwwVcmVxdWVzdGVyLmxvY2FsZG9tYWluMIIBIjANBgkqhkiG9w0BAQEF
AAOCAQ8AMIIBCgKCAQEAzb4UT/rOAT9CIhsdnK/dktJ/22y3PjlDQ2sTA/EF9Ad0
vHZpKAuvGY7X/OPNxljyyn8IbVP8BwJEJMa0NEyMBP4zDkDiILoCc1r39U9jbszG
tt9UHTc5fVE2Jl+93D+oi2uirrad1iHn30G4eigqaEjKqC3t4elGXlpybbSEOIeR
/ZQRCyiExsIvKvsB+TZ6CXXRM4g8c0FbyL+UiXCh8MC5LlBTHrEXZGn0LYHgqQ0O
Mum6VYqF8RtvSXm0f4jDDT5UiJs9HziMBPPuamMr9cbbtIOqxHhBOn1L4cg+ccob
YVnqxsTKMl7J6b8SKebGw2P+oFXaevFgmE0m7fpwLQIDAQABo4IBDjCCAQowCwYD
VR0PBAQDAgWgMAkGA1UdEwQCMAAwEQYJYIZIAYb4QgEBBAQDAgZAMDMGCWCGSAGG
+EIBDQQmFiRPcGVuU1NMIEdlbmVyYXRlZCBTZXJ2ZXIgQ2VydGlmaWNhdGUwHQYD
VR0OBBYEFFM/7V0JB7Nle6tFySRbCXeACpbtMHQGA1UdIwRtMGuAFPSnwMyRRq9k
85HyJ/jIsm+KhzJzoUikRjBEMQswCQYDVQQGEwJERTEPMA0GA1UECAwGSGVzc2Vu
MRQwEgYDVQQKDAtwcml2YWN5aWRlYTEOMAwGA1UEAwwFQ0EwMDGCCQD7yOusg80S
BzATBgNVHSUEDDAKBggrBgEFBQcDATANBgkqhkiG9w0BAQsFAAOCAQEAgDX82yWX
ammSa13aMzvyvLyl1rsZzc/EFyFcCu291rmD1DHLXgNookT8z2rqnJTbYwwX/Xfk
d8vCdz7RLwOur5s1cXLtai+PNOWs84G2K/pSVLGSfTJRmbr9o7toh2NiSjVqePva
wmyfwflm4/kN0LeYKygRa8BGVwQtzzIaptF3PQGRlLs04nBcFc8i1q9vFjYcTtjZ
CkTEb5O3nUrDcZRKR4/8mvGclA88Wiy7JLpTVzZQb15L1CNpruQRiebjNgW1clOA
/OrCMguzYTWRGSlAlll+HK5S+v3EoFqrYb9MZaJ422+tj3ZCP8pzyuFFpk1HR/Qq
+GI4mmNk8i0Bug==
-----END CERTIFICATE-----
