Certificate:
    Data:
        Version: 3 (0x2)
        Serial Number: 268435675 (0x100000db)
        Signature Algorithm: sha256WithRSAEncryption
        Issuer: C=DE, ST=Hessen, O=privacyidea, CN=CA001
        Validity
            Not Before: Oct 24 09:01:02 2019 GMT
            Not After : Oct 23 09:01:02 2020 GMT
        Subject: OU=realm1, CN=cornelius/emailAddress=user@localhost.localdomain
        Subject Public Key Info:
            Public Key Algorithm: rsaEncryption
                RSA Public-Key: (2048 bit)
                Modulus:
                    00:d9:af:65:2e:4c:e0:e7:9f:6a:30:ed:27:66:66:
                    a5:3e:a8:d4:a0:c3:9e:3e:2e:84:15:bd:14:1a:a4:
                    13:12:84:45:43:7a:70:35:9a:a4:48:bb:a6:6f:f9:
                    05:b9:37:6d:c6:3b:be:07:1e:83:c7:e2:de:33:0f:
                    5f:4b:cc:aa:42:2a:73:9a:55:ff:27:2d:28:e9:95:
                    ca:29:d8:26:72:06:25:e1:25:5e:d4:b8:c9:52:31:
                    99:18:aa:db:94:ba:90:47:80:27:1a:c4:c0:f7:90:
                    c8:37:2e:c8:8e:89:b6:4d:03:d9:f5:83:8f:14:30:
                    ba:55:b4:40:de:f0:7e:29:fa:aa:09:d3:1e:a9:b6:
                    b6:d2:39:c1:19:81:0d:3d:7c:b9:d0:7a:c5:99:d7:
                    c1:7b:99:12:d9:84:38:63:c6:f8:94:34:26:b6:ca:
                    ba:cb:b0:c0:ce:1b:47:bd:7e:ab:51:64:86:bc:40:
                    32:8e:64:77:d5:54:de:b2:d6:37:07:f0:59:84:e2:
                    bb:2e:35:47:bd:14:95:5b:3b:e4:15:b5:f0:ac:4f:
                    b0:89:95:ad:59:75:5a:c3:4a:17:68:93:05:e0:99:
                    95:c3:97:25:77:2a:b3:a1:3e:1c:3a:cb:be:2a:1e:
                    f8:09:0e:46:5f:33:06:9e:4b:17:f1:25:01:11:ed:
                    2a:a1
                Exponent: 65537 (0x10001)
        X509v3 extensions:
            X509v3 Key Usage: 
                Digital Signature, Key Encipherment
            X509v3 Basic Constraints: 
                CA:FALSE
            Netscape Cert Type: 
                SSL Server
            Netscape Comment: 
                OpenSSL Generated Server Certificate
            X509v3 Subject Key Identifier: 
                AE:78:C2:00:AA:72:2F:C2:2B:B2:9D:F9:E7:B2:BF:29:97:D5:75:9E
            X509v3 Authority Key Identifier: 
                keyid:F4:A7:C0:CC:91:46:AF:64:F3:91:F2:27:F8:C8:B2:6F:8A:87:32:73
                DirName:/C=DE/ST=Hessen/O=privacyidea/CN=CA001
                serial:FB:C8:EB:AC:83:CD:12:07

            X509v3 Extended Key Usage: 
                TLS Web Server Authentication
    Signature Algorithm: sha256WithRSAEncryption
         77:a6:52:6d:2f:8d:36:9d:b5:f5:ee:9d:c3:43:07:d3:77:41:
         d7:b2:5c:f0:1f:2e:23:ca:21:41:9c:ff:44:7c:7d:73:f3:c1:
         13:64:70:62:2f:8c:d1:6c:32:e4:d7:7f:cf:5b:d2:a4:5e:7c:
         a5:4d:0e:86:07:02:3b:31:1d:17:d7:eb:7a:e6:38:3c:0f:c7:
         e8:bc:cc:95:ec:80:18:02:e3:d7:e9:3f:f4:4c:70:17:47:af:
         47:8f:a4:41:de:f1:96:50:ae:0d:ed:82:0c:28:e2:7b:38:af:
         71:5e:22:01:6f:48:a0:19:c4:57:a9:d8:b6:d0:7f:72:62:25:
         f2:30:a5:b6:b6:5c:f4:45:ba:f7:c1:44:64:f2:5d:c0:35:7c:
         08:53:b4:79:f9:58:e9:63:11:19:56:15:ca:33:15:cd:80:83:
         8d:58:1e:23:66:f7:fa:48:30:c6:26:07:95:f6:5d:fa:24:d2:
         69:2e:c4:ff:2d:2c:35:96:81:80:59:04:d6:a2:1d:b4:39:f6:
         46:c8:42:ae:07:70:5b:a4:c8:93:57:0d:83:73:3a:cd:37:bb:
         65:77:35:ff:a9:7d:9c:7c:d9:42:ea:fa:8c:83:12:ae:d6:03:
         6f:78:ab:c8:87:79:4c:a8:d5:26:c9:8f:2f:8c:01:9e:14:7a:
         3b:16:d6:e3
-----BEGIN CERTIFICATE-----
MIIEIjCCAwqgAwIBAgIEEAAA2zANBgkqhkiG9w0BAQsFADBEMQswCQYDVQQGEwJE
RTEPMA0GA1UECAwGSGVzc2VuMRQwEgYDVQQKDAtwcml2YWN5aWRlYTEOMAwGA1UE
AwwFQ0EwMDEwHhcNMTkxMDI0MDkwMTAyWhcNMjAxMDIzMDkwMTAyWjBQMQ8wDQYD
VQQLDAZyZWFsbTExEjAQBgNVBAMMCWNvcm5lbGl1czEpMCcGCSqGSIb3DQEJARYa
dXNlckBsb2NhbGhvc3QubG9jYWxkb21haW4wggEiMA0GCSqGSIb3DQEBAQUAA4IB
DwAwggEKAoIBAQDZr2UuTODnn2ow7SdmZqU+qNSgw54+LoQVvRQapBMShEVDenA1
mqRIu6Zv+QW5N23GO74HHoPH4t4zD19LzKpCKnOaVf8nLSjplcop2CZyBiXhJV7U
uMlSMZkYqtuUupBHgCcaxMD3kMg3LsiOibZNA9n1g48UMLpVtEDe8H4p+qoJ0x6p
trbSOcEZgQ09fLnQesWZ18F7mRLZhDhjxviUNCa2yrrLsMDOG0e9fqtRZIa8QDKO
ZHfVVN6y1jcH8FmE4rsuNUe9FJVbO+QVtfCsT7CJla1ZdVrDShdokwXgmZXDlyV3
KrOhPhw6y74qHvgJDkZfMwaeSxfxJQER7SqhAgMBAAGjggEOMIIBCjALBgNVHQ8E
BAMCBaAwCQYDVR0TBAIwADARBglghkgBhvhCAQEEBAMCBkAwMwYJYIZIAYb4QgEN
BCYWJE9wZW5TU0wgR2VuZXJhdGVkIFNlcnZlciBDZXJ0aWZpY2F0ZTAdBgNVHQ4E
FgQUrnjCAKpyL8Irsp3557K/KZfVdZ4wdAYDVR0jBG0wa4AU9KfAzJFGr2TzkfIn
+Miyb4qHMnOhSKRGMEQxCzAJBgNVBAYTAkRFMQ8wDQYDVQQIDAZIZXNzZW4xFDAS
BgNVBAoMC3ByaXZhY3lpZGVhMQ4wDAYDVQQDDAVDQTAwMYIJAPvI66yDzRIHMBMG
A1UdJQQMMAoGCCsGAQUFBwMBMA0GCSqGSIb3DQEBCwUAA4IBAQB3plJtL402nbX1
7p3DQwfTd0HXslzwHy4jyiFBnP9EfH1z88ETZHBiL4zRbDLk13/PW9KkXnylTQ6G
BwI7MR0X1+t65jg8D8fovMyV7IAYAuPX6T/0THAXR69Hj6RB3vGWUK4N7YIMKOJ7
OK9xXiIBb0igGcRXqdi20H9yYiXyMKW2tlz0Rbr3wURk8l3ANXwIU7R5+VjpYxEZ
VhXKMxXNgIONWB4jZvf6SDDGJgeV9l36JNJpLsT/LSw1loGAWQTWoh20OfZGyEKu
B3BbpMiTVw2DczrNN7tldzX/qX2cfNlC6vqMgxKu1gNveKvIh3lMqNUmyY8vjAGe
FHo7Ftbj
-----END CERTIFICATE-----
