Certificate:
    Data:
        Version: 3 (0x2)
        Serial Number: 268435671 (0x100000d7)
        Signature Algorithm: sha256WithRSAEncryption
        Issuer: C=DE, ST=Hessen, O=privacyidea, CN=CA001
        Validity
            Not Before: Nov 14 06:23:00 2019 GMT
            Not After : Nov 13 06:23:00 2020 GMT
        Subject: OU=realm1, CN=cornelius/emailAddress=user@localhost.localdomain
        Subject Public Key Info:
            Public Key Algorithm: rsaEncryption
                RSA Public-Key: (2048 bit)
                Modulus:
                    00:a7:74:6f:0e:85:32:e3:7a:f1:66:fa:3a:a0:39:
                    54:b5:0d:13:ec:2c:6d:4a:25:8f:10:08:08:fb:0c:
                    8d:a5:3d:7c:84:1d:2c:a6:70:f0:c4:7c:50:14:b4:
                    1b:e1:a4:b2:ad:d0:e5:0e:50:bd:ed:ce:1b:c3:56:
                    28:a2:00:dd:80:da:6e:ea:41:be:6b:8f:d9:a3:d2:
                    5e:69:d6:53:72:a8:46:e3:21:5b:d9:36:2c:68:8e:
                    55:10:fb:1c:fa:ea:81:43:aa:cd:12:00:fb:11:07:
                    b7:c5:fc:3f:0d:d4:1e:03:90:89:93:4a:a6:d0:cb:
                    7f:3a:e5:e9:be:22:ba:da:7e:d0:db:35:d8:ff:9d:
                    8b:1f:c0:9a:06:4b:76:93:00:db:51:2f:e1:0d:09:
                    e1:cc:72:04:ee:d0:7f:a5:39:85:74:f8:48:e7:8c:
                    6c:cd:a1:62:ac:8c:b8:ba:bb:d3:73:e5:62:36:2b:
                    1f:4d:cf:9b:b4:28:7a:7d:8b:6a:0e:89:94:1f:59:
                    6a:22:b7:f6:bf:09:75:e7:9a:db:3c:34:3c:d3:d8:
                    38:db:9f:2e:8d:25:3f:bf:96:16:00:c1:8c:42:c0:
                    27:1e:58:39:06:72:40:e6:b6:8b:5a:5b:bf:db:53:
                    43:74:8f:b8:43:7d:4d:67:4e:2b:35:e3:6e:13:3e:
                    77:19
                Exponent: 65537 (0x10001)
        X509v3 extensions:
            X509v3 Key Usage: 
                Digital Signature, Key Encipherment
            X509v3 Basic Constraints: 
                CA:FALSE
            Netscape Cert Type: 
                SSL Server
            Netscape Comment: 
                OpenSSL Generated Server Certificate
            X509v3 Subject Key Identifier: 
                47:91:30:F2:A6:0A:B7:87:54:2B:21:C0:66:EB:BB:4C:B3:A5:67:AA
            X509v3 Authority Key Identifier: 
                keyid:F4:A7:C0:CC:91:46:AF:64:F3:91:F2:27:F8:C8:B2:6F:8A:87:32:73
                DirName:/C=DE/ST=Hessen/O=privacyidea/CN=CA001
                serial:FB:C8:EB:AC:83:CD:12:07

            X509v3 Extended Key Usage: 
                TLS Web Server Authentication
    Signature Algorithm: sha256WithRSAEncryption
         46:c4:39:bc:0a:a8:ec:ce:f6:c3:ab:16:e2:a2:b9:ea:5b:d4:
         e1:5c:e4:64:b7:7f:fa:9d:22:1f:38:a2:02:a8:4c:da:be:b5:
         46:b1:09:e1:81:07:d3:bd:c3:7f:bc:fa:e8:b1:af:71:b1:56:
         e2:68:89:cb:be:14:65:21:94:82:29:ea:03:de:9e:03:9e:5d:
         73:91:d2:1a:14:e7:6c:d6:43:cb:1b:9a:44:20:97:98:f3:cd:
         9e:5f:62:f5:49:82:aa:f7:36:01:5e:b1:77:05:64:c6:95:9a:
         0d:10:0c:a2:6c:56:26:30:6c:88:cc:9c:53:f5:41:cf:c5:88:
         84:10:d4:a1:11:c1:74:f2:41:4b:97:7d:3c:cd:81:d3:3f:dc:
         dd:ca:97:bf:de:6a:fa:ee:ce:60:c8:56:f2:01:69:04:62:97:
         88:ea:03:35:6e:88:b9:cc:3f:cd:eb:a8:37:23:5e:a8:db:0c:
         23:b7:7d:c4:90:71:bd:0a:60:c4:42:91:9b:30:2c:02:eb:5a:
         5a:12:aa:be:04:f0:2e:94:87:5a:9b:dd:04:a8:b4:2f:59:05:
         97:54:a5:c2:0b:ba:a1:8c:25:e9:90:4d:7d:92:b7:84:86:b5:
         6e:b3:ca:65:b7:39:67:bb:7a:ae:db:73:f8:67:9f:50:23:eb:
         7c:11:a0:d3
-----BEGIN CERTIFICATE-----
MIIEIjCCAwqgAwIBAgIEEAAA1zANBgkqhkiG9w0BAQsFADBEMQswCQYDVQQGEwJE
RTEPMA0GA1UECAwGSGVzc2VuMRQwEgYDVQQKDAtwcml2YWN5aWRlYTEOMAwGA1UE
AwwFQ0EwMDEwHhcNMTkxMTE0MDYyMzAwWhcNMjAxMTEzMDYyMzAwWjBQMQ8wDQYD
VQQLDAZyZWFsbTExEjAQBgNVBAMMCWNvcm5lbGl1czEpMCcGCSqGSIb3DQEJARYa
dXNlckBsb2NhbGhvc3QubG9jYWxkb21haW4wggEiMA0GCSqGSIb3DQEBAQUAA4IB
DwAwggEKAoIBAQCndG8OhTLjevFm+jqgOVS1DRPsLG1KJY8QCAj7DI2lPXyEHSym
cPDEfFAUtBvhpLKt0OUOUL3tzhvDViiiAN2A2m7qQb5rj9mj0l5p1lNyqEbjIVvZ
NixojlUQ+xz66oFDqs0SAPsRB7fF/D8N1B4DkImTSqbQy3865em+IrraftDbNdj/
nYsfwJoGS3aTANtRL+ENCeHMcgTu0H+lOYV0+EjnjGzNoWKsjLi6u9Nz5WI2Kx9N
z5u0KHp9i2oOiZQfWWoit/a/CXXnmts8NDzT2Djbny6NJT+/lhYAwYxCwCceWDkG
ckDmtotaW7/bU0N0j7hDfU1nTis1424TPncZAgMBAAGjggEOMIIBCjALBgNVHQ8E
BAMCBaAwCQYDVR0TBAIwADARBglghkgBhvhCAQEEBAMCBkAwMwYJYIZIAYb4QgEN
BCYWJE9wZW5TU0wgR2VuZXJhdGVkIFNlcnZlciBDZXJ0aWZpY2F0ZTAdBgNVHQ4E
FgQUR5Ew8qYKt4dUKyHAZuu7TLOlZ6owdAYDVR0jBG0wa4AU9KfAzJFGr2TzkfIn
+Miyb4qHMnOhSKRGMEQxCzAJBgNVBAYTAkRFMQ8wDQYDVQQIDAZIZXNzZW4xFDAS
BgNVBAoMC3ByaXZhY3lpZGVhMQ4wDAYDVQQDDAVDQTAwMYIJAPvI66yDzRIHMBMG
A1UdJQQMMAoGCCsGAQUFBwMBMA0GCSqGSIb3DQEBCwUAA4IBAQBGxDm8CqjszvbD
qxbiornqW9ThXORkt3/6nSIfOKICqEzavrVGsQnhgQfTvcN/vProsa9xsVbiaInL
vhRlIZSCKeoD3p4Dnl1zkdIaFOds1kPLG5pEIJeY882eX2L1SYKq9zYBXrF3BWTG
lZoNEAyibFYmMGyIzJxT9UHPxYiEENShEcF08kFLl308zYHTP9zdype/3mr67s5g
yFbyAWkEYpeI6gM1boi5zD/N66g3I16o2wwjt33EkHG9CmDEQpGbMCwC61paEqq+
BPAulIdam90EqLQvWQWXVKXCC7qhjCXpkE19kreEhrVus8pltzlnu3qu23P4Z59Q
I+t8EaDT
-----END CERTIFICATE-----
