Certificate:
    Data:
        Version: 3 (0x2)
        Serial Number: 268435667 (0x100000d3)
        Signature Algorithm: sha256WithRSAEncryption
        Issuer: C=DE, ST=Hessen, O=privacyidea, CN=CA001
        Validity
            Not Before: Nov 14 06:20:49 2019 GMT
            Not After : Nov 13 06:20:49 2020 GMT
        Subject: C=DE, ST=Hessen, O=privacyidea, CN=usercert
        Subject Public Key Info:
            Public Key Algorithm: rsaEncryption
                RSA Public-Key: (2048 bit)
                Modulus:
                    00:dc:2f:d1:5f:29:97:d4:7c:c3:53:c8:30:bd:4b:
                    67:70:2c:24:6b:b8:5e:eb:21:7a:48:12:56:7c:81:
                    5c:48:75:b6:68:eb:f6:f2:98:4e:50:51:d1:7f:6c:
                    73:f3:0a:a7:ae:be:48:5e:e5:d6:e1:d9:2a:7c:32:
                    6e:4e:fd:08:f6:5a:54:49:23:73:c3:b9:07:18:d1:
                    ef:b3:ac:f8:8a:dc:94:96:a4:90:3a:8e:74:df:e6:
                    0d:37:1b:bd:5b:b7:25:1a:56:39:da:6f:91:aa:5e:
                    1c:74:f3:f9:7c:14:01:83:12:65:76:c7:bb:fe:36:
                    5b:95:e9:72:65:83:ed:3e:98:30:71:fa:87:dd:a3:
                    36:5a:30:03:2e:26:e0:61:d1:bf:02:3f:b6:06:1f:
                    4a:89:28:1c:5c:a2:ff:4e:be:94:e6:8c:e0:da:82:
                    f1:9d:29:32:48:30:73:b4:04:f6:42:1e:be:f7:e2:
                    32:32:27:3c:9d:89:2f:70:3e:85:9a:6f:5c:c5:09:
                    c0:8c:32:2f:72:22:c9:d2:95:1f:b6:ac:72:60:72:
                    b7:82:4d:6b:ce:5b:e3:00:d0:d2:2f:58:c6:e0:10:
                    e5:51:ca:4d:3b:2e:e6:7e:ab:84:d6:56:f1:93:35:
                    a0:93:64:26:81:75:2f:91:b5:16:06:38:0b:db:cc:
                    2d:07
                Exponent: 65537 (0x10001)
        X509v3 extensions:
            X509v3 Key Usage: 
                Digital Signature, Key Encipherment
            X509v3 Basic Constraints: 
                CA:FALSE
            Netscape Cert Type: 
                SSL Server
            Netscape Comment: 
                OpenSSL Generated Server Certificate
            X509v3 Subject Key Identifier: 
                FC:14:D1:F0:4B:8D:00:90:F2:F5:B8:71:9E:4E:97:C3:92:54:AD:0B
            X509v3 Authority Key Identifier: 
                keyid:F4:A7:C0:CC:91:46:AF:64:F3:91:F2:27:F8:C8:B2:6F:8A:87:32:73
                DirName:/C=DE/ST=Hessen/O=privacyidea/CN=CA001
                serial:FB:C8:EB:AC:83:CD:12:07

            X509v3 Extended Key Usage: 
                TLS Web Server Authentication
    Signature Algorithm: sha256WithRSAEncryption
         a7:51:03:37:ec:10:e9:2b:37:ae:0d:fe:eb:79:66:20:02:62:
         a2:8d:bd:d3:e6:f6:c7:d5:66:08:97:26:83:a3:a9:5b:d2:75:
         d6:ad:a9:03:92:eb:ed:9f:ec:59:3e:6e:d9:a4:0d:e0:55:a9:
         a7:50:7f:4a:41:a1:0f:f0:35:2a:dd:c1:6b:53:f7:bc:c6:41:
         60:32:77:24:32:4c:88:50:36:1e:03:63:ce:36:0a:bb:46:d7:
         a6:cc:57:b0:a0:7d:fa:86:06:a8:4f:57:ec:7d:e8:bf:58:a8:
         dc:0b:c6:4b:c2:bc:c1:94:c3:6f:be:e7:b2:fb:dc:ef:41:20:
         23:09:e6:49:7b:47:57:24:a0:12:c8:b6:27:72:a9:1b:5a:33:
         36:b0:41:57:48:f8:77:cf:f1:f8:28:46:23:5a:98:ae:65:2e:
         a6:7d:47:24:25:e6:bc:c0:c0:2b:ff:71:7c:94:3d:57:d8:68:
         6e:64:7c:6e:b5:7c:bd:ce:7b:43:3a:06:bf:44:06:24:1a:19:
         c7:30:fb:cf:94:a3:4d:31:b9:8b:ce:16:ae:14:ac:7a:f1:58:
         c4:db:61:50:ba:9f:03:34:8b:0a:5c:9d:ca:95:b1:71:d5:dc:
         27:b6:1e:a9:13:d9:21:f3:56:1b:98:92:8d:fe:75:b7:65:f3:
         fc:be:61:24
-----BEGIN CERTIFICATE-----
MIIEGTCCAwGgAwIBAgIEEAAA0zANBgkqhkiG9w0BAQsFADBEMQswCQYDVQQGEwJE
RTEPMA0GA1UECAwGSGVzc2VuMRQwEgYDVQQKDAtwcml2YWN5aWRlYTEOMAwGA1UE
AwwFQ0EwMDEwHhcNMTkxMTE0MDYyMDQ5WhcNMjAxMTEzMDYyMDQ5WjBHMQswCQYD
VQQGEwJERTEPMA0GA1UECAwGSGVzc2VuMRQwEgYDVQQKDAtwcml2YWN5aWRlYTER
MA8GA1UEAwwIdXNlcmNlcnQwggEiMA0GCSqGSIb3DQEBAQUAA4IBDwAwggEKAoIB
AQDcL9FfKZfUfMNTyDC9S2dwLCRruF7rIXpIElZ8gVxIdbZo6/bymE5QUdF/bHPz
Cqeuvkhe5dbh2Sp8Mm5O/Qj2WlRJI3PDuQcY0e+zrPiK3JSWpJA6jnTf5g03G71b
tyUaVjnab5GqXhx08/l8FAGDEmV2x7v+NluV6XJlg+0+mDBx+ofdozZaMAMuJuBh
0b8CP7YGH0qJKBxcov9OvpTmjODagvGdKTJIMHO0BPZCHr734jIyJzydiS9wPoWa
b1zFCcCMMi9yIsnSlR+2rHJgcreCTWvOW+MA0NIvWMbgEOVRyk07LuZ+q4TWVvGT
NaCTZCaBdS+RtRYGOAvbzC0HAgMBAAGjggEOMIIBCjALBgNVHQ8EBAMCBaAwCQYD
VR0TBAIwADARBglghkgBhvhCAQEEBAMCBkAwMwYJYIZIAYb4QgENBCYWJE9wZW5T
U0wgR2VuZXJhdGVkIFNlcnZlciBDZXJ0aWZpY2F0ZTAdBgNVHQ4EFgQU/BTR8EuN
AJDy9bhxnk6Xw5JUrQswdAYDVR0jBG0wa4AU9KfAzJFGr2TzkfIn+Miyb4qHMnOh
SKRGMEQxCzAJBgNVBAYTAkRFMQ8wDQYDVQQIDAZIZXNzZW4xFDASBgNVBAoMC3By
aXZhY3lpZGVhMQ4wDAYDVQQDDAVDQTAwMYIJAPvI66yDzRIHMBMGA1UdJQQMMAoG
CCsGAQUFBwMBMA0GCSqGSIb3DQEBCwUAA4IBAQCnUQM37BDpKzeuDf7reWYgAmKi
jb3T5vbH1WYIlyaDo6lb0nXWrakDkuvtn+xZPm7ZpA3gVamnUH9KQaEP8DUq3cFr
U/e8xkFgMnckMkyIUDYeA2PONgq7RtemzFewoH36hgaoT1fsfei/WKjcC8ZLwrzB
lMNvvuey+9zvQSAjCeZJe0dXJKASyLYncqkbWjM2sEFXSPh3z/H4KEYjWpiuZS6m
fUckJea8wMAr/3F8lD1X2GhuZHxutXy9zntDOga/RAYkGhnHMPvPlKNNMbmLzhau
FKx68VjE22FQup8DNIsKXJ3KlbFx1dwnth6pE9kh81YbmJKN/nW3ZfP8vmEk
-----END CERTIFICATE-----
